; ModuleID = 'src/capnp/serialize-text.c++'
source_filename = "src/capnp/serialize-text.c++"
target datalayout = "e-m:e-i64:64-f80:128-n8:16:32:64-S128"
target triple = "x86_64-unknown-linux-gnu"

%"struct.kj::_::Stringifier" = type { i8 }
%"class.capnp::TextCodec" = type { i8 }
%"class.kj::String" = type { %"class.kj::Array" }
%"class.kj::Array" = type { i8*, i64, %"class.kj::ArrayDisposer"* }
%"class.kj::ArrayDisposer" = type { i32 (...)** }
%"class.capnp::DynamicValue::Reader" = type { i32, %union.anon }
%union.anon = type { %"class.capnp::DynamicList::Reader" }
%"class.capnp::DynamicList::Reader" = type { %"class.capnp::ListSchema", %"class.capnp::_::ListReader" }
%"class.capnp::ListSchema" = type { %"class.capnp::Type" }
%"class.capnp::Type" = type { i16, i8, i8, %union.anon.2, %union.anon.3 }
%union.anon.2 = type { i16 }
%union.anon.3 = type { %"struct.capnp::_::RawBrandedSchema"* }
%"struct.capnp::_::RawBrandedSchema" = type { %"struct.capnp::_::RawSchema"*, %"struct.capnp::_::RawBrandedSchema::Scope"*, %"struct.capnp::_::RawBrandedSchema::Dependency"*, i32, i32, %"class.capnp::_::RawBrandedSchema::Initializer"* }
%"struct.capnp::_::RawSchema" = type { i64, %"class.capnp::word"*, i32, %"struct.capnp::_::RawSchema"**, i16*, i32, i32, i16*, %"struct.capnp::_::RawSchema"*, %"class.capnp::_::RawSchema::Initializer"*, %"struct.capnp::_::RawBrandedSchema" }
%"class.capnp::word" = type { i64 }
%"class.capnp::_::RawSchema::Initializer" = type { i32 (...)** }
%"struct.capnp::_::RawBrandedSchema::Scope" = type { i64, %"struct.capnp::_::RawBrandedSchema::Binding"*, i32, i8 }
%"struct.capnp::_::RawBrandedSchema::Binding" = type { i8, i8, i16, i16, %union.anon.4 }
%union.anon.4 = type { %"struct.capnp::_::RawBrandedSchema"* }
%"struct.capnp::_::RawBrandedSchema::Dependency" = type { i32, %"struct.capnp::_::RawBrandedSchema"* }
%"class.capnp::_::RawBrandedSchema::Initializer" = type { i32 (...)** }
%"class.capnp::_::ListReader" = type <{ %"class.capnp::_::SegmentReader"*, %"class.capnp::_::CapTableReader"*, i8*, i32, i32, i32, i16, i8, i8, i32, [4 x i8] }>
%"class.capnp::_::SegmentReader" = type opaque
%"class.capnp::_::CapTableReader" = type { i32 (...)** }
%"class.kj::StringTree" = type { i64, %"class.kj::String", %"class.kj::Array.5" }
%"class.kj::Array.5" = type { %"struct.kj::StringTree::Branch"*, i64, %"class.kj::ArrayDisposer"* }
%"struct.kj::StringTree::Branch" = type { i64, %"class.kj::StringTree" }
%"class.capnp::DynamicStruct::Reader" = type { %"class.capnp::StructSchema", %"class.capnp::_::StructReader" }
%"class.capnp::StructSchema" = type { %"class.capnp::Schema" }
%"class.capnp::Schema" = type { %"struct.capnp::_::RawBrandedSchema"* }
%"class.capnp::_::StructReader" = type <{ %"class.capnp::_::SegmentReader"*, %"class.capnp::_::CapTableReader"*, i8*, %"struct.capnp::_::WirePointer"*, i32, i16, [2 x i8], i32, [4 x i8] }>
%"struct.capnp::_::WirePointer" = type opaque
%"class.capnp::DynamicStruct::Builder" = type { %"class.capnp::StructSchema", %"class.capnp::_::StructBuilder" }
%"class.capnp::_::StructBuilder" = type <{ %"class.capnp::_::SegmentBuilder"*, %"class.capnp::_::CapTableBuilder"*, i8*, %"struct.capnp::_::WirePointer"*, i32, i16, [2 x i8] }>
%"class.capnp::_::SegmentBuilder" = type opaque
%"class.capnp::_::CapTableBuilder" = type { %"class.capnp::_::CapTableReader" }
%"class.capnp::_::PointerReader" = type <{ %"class.capnp::_::SegmentReader"*, %"class.capnp::_::CapTableReader"*, %"struct.capnp::_::WirePointer"*, i32, [4 x i8] }>
%"class.kj::_::Debug::Fault" = type { %"class.kj::Exception"* }
%"class.kj::Exception" = type <{ %"class.kj::String", i8*, i32, i32, %"class.kj::String", %"class.kj::Maybe.16", [32 x i8*], i32, [4 x i8] }>
%"class.kj::Maybe.16" = type { %"class.kj::Own.17" }
%"class.kj::Own.17" = type { %"class.kj::Disposer"*, %"struct.kj::Exception::Context"* }
%"class.kj::Disposer" = type { i32 (...)** }
%"struct.kj::Exception::Context" = type { i8*, i32, %"class.kj::String", %"class.kj::Maybe.16" }
%"class.(anonymous namespace)::ThrowingErrorReporter" = type { %"class.capnp::compiler::ErrorReporter" }
%"class.capnp::compiler::ErrorReporter" = type { i32 (...)** }
%"class.(anonymous namespace)::ExternalResolver" = type { %"class.capnp::compiler::ValueTranslator::Resolver" }
%"class.capnp::compiler::ValueTranslator::Resolver" = type { i32 (...)** }
%"class.capnp::compiler::ValueTranslator" = type { %"class.capnp::compiler::ValueTranslator::Resolver"*, %"class.capnp::compiler::ErrorReporter"*, %"class.capnp::Orphanage" }
%"class.capnp::Orphanage" = type { %"class.capnp::_::BuilderArena"*, %"class.capnp::_::CapTableBuilder"* }
%"class.capnp::_::BuilderArena" = type opaque
%"class.capnp::List<capnp::compiler::Expression::Param, capnp::Kind::STRUCT>::Reader" = type { %"class.capnp::_::ListReader" }
%"class.capnp::List<capnp::compiler::Token, capnp::Kind::STRUCT>::Reader" = type { %"class.capnp::_::ListReader" }
%"class.capnp::_::PointerBuilder" = type { %"class.capnp::_::SegmentBuilder"*, %"class.capnp::_::CapTableBuilder"*, %"struct.capnp::_::WirePointer"* }
%"class.capnp::AnyPointer::Builder" = type { %"class.capnp::_::PointerBuilder" }
%"class.capnp::MallocMessageBuilder" = type { %"class.capnp::MessageBuilder.base", i32, i8, i8, i8, i8*, %"class.kj::Maybe" }
%"class.capnp::MessageBuilder.base" = type <{ i32 (...)**, [22 x i8*], i8 }>
%"class.kj::Maybe" = type { %"class.kj::Own.8" }
%"class.kj::Own.8" = type { %"class.kj::Disposer"*, %"struct.capnp::MallocMessageBuilder::MoreSegments"* }
%"struct.capnp::MallocMessageBuilder::MoreSegments" = type opaque
%"class.capnp::compiler::LexedTokens::Builder" = type { %"class.capnp::_::StructBuilder" }
%"class.capnp::compiler::CapnpParser" = type { %"class.capnp::Orphanage", %"class.capnp::compiler::ErrorReporter"*, %"class.kj::Arena", %"struct.capnp::compiler::CapnpParser::Parsers" }
%"class.kj::Arena" = type { i64, %"struct.kj::Arena::ChunkHeader"*, %"struct.kj::Arena::ObjectHeader"*, %"struct.kj::Arena::ChunkHeader"* }
%"struct.kj::Arena::ObjectHeader" = type { void (i8*)*, %"struct.kj::Arena::ObjectHeader"* }
%"struct.kj::Arena::ChunkHeader" = type { %"struct.kj::Arena::ChunkHeader"*, i8*, i8* }
%"struct.capnp::compiler::CapnpParser::Parsers" = type { %"class.kj::parse::ParserRef", %"class.kj::parse::ParserRef", %"class.kj::parse::ParserRef", %"class.kj::parse::ParserRef", %"class.kj::parse::ParserRef", %"class.kj::parse::ParserRef.9", %"class.kj::parse::ParserRef.10", %"class.kj::parse::ParserRef.11", %"class.kj::parse::ParserRef.11", %"class.kj::parse::ParserRef.12", %"class.kj::parse::ParserRef", %"class.kj::parse::ParserRef", %"class.kj::parse::ParserRef", %"class.kj::parse::ParserRef", %"class.kj::parse::ParserRef", %"class.kj::parse::ParserRef", %"class.kj::parse::ParserRef", %"class.kj::parse::ParserRef", %"class.kj::parse::ParserRef", %"class.kj::parse::ParserRef", %"class.kj::parse::ParserRef", %"class.kj::parse::ParserRef" }
%"class.kj::parse::ParserRef.9" = type { i8*, %"struct.kj::parse::ParserRef<kj::parse::IteratorInput<capnp::compiler::Token::Reader, capnp::_::IndexingIterator<const capnp::List<capnp::compiler::Token, capnp::Kind::STRUCT>::Reader, capnp::compiler::Token::Reader> >, capnp::Orphan<capnp::compiler::Expression> >::Wrapper"* }
%"struct.kj::parse::ParserRef<kj::parse::IteratorInput<capnp::compiler::Token::Reader, capnp::_::IndexingIterator<const capnp::List<capnp::compiler::Token, capnp::Kind::STRUCT>::Reader, capnp::compiler::Token::Reader> >, capnp::Orphan<capnp::compiler::Expression> >::Wrapper" = type { i32 (...)** }
%"class.kj::parse::ParserRef.10" = type { i8*, %"struct.kj::parse::ParserRef<kj::parse::IteratorInput<capnp::compiler::Token::Reader, capnp::_::IndexingIterator<const capnp::List<capnp::compiler::Token, capnp::Kind::STRUCT>::Reader, capnp::compiler::Token::Reader> >, capnp::Orphan<capnp::compiler::Declaration::AnnotationApplication> >::Wrapper"* }
%"struct.kj::parse::ParserRef<kj::parse::IteratorInput<capnp::compiler::Token::Reader, capnp::_::IndexingIterator<const capnp::List<capnp::compiler::Token, capnp::Kind::STRUCT>::Reader, capnp::compiler::Token::Reader> >, capnp::Orphan<capnp::compiler::Declaration::AnnotationApplication> >::Wrapper" = type opaque
%"class.kj::parse::ParserRef.11" = type { i8*, %"struct.kj::parse::ParserRef<kj::parse::IteratorInput<capnp::compiler::Token::Reader, capnp::_::IndexingIterator<const capnp::List<capnp::compiler::Token, capnp::Kind::STRUCT>::Reader, capnp::compiler::Token::Reader> >, capnp::Orphan<capnp::compiler::LocatedInteger> >::Wrapper"* }
%"struct.kj::parse::ParserRef<kj::parse::IteratorInput<capnp::compiler::Token::Reader, capnp::_::IndexingIterator<const capnp::List<capnp::compiler::Token, capnp::Kind::STRUCT>::Reader, capnp::compiler::Token::Reader> >, capnp::Orphan<capnp::compiler::LocatedInteger> >::Wrapper" = type opaque
%"class.kj::parse::ParserRef.12" = type { i8*, %"struct.kj::parse::ParserRef<kj::parse::IteratorInput<capnp::compiler::Token::Reader, capnp::_::IndexingIterator<const capnp::List<capnp::compiler::Token, capnp::Kind::STRUCT>::Reader, capnp::compiler::Token::Reader> >, capnp::Orphan<capnp::compiler::Declaration::Param> >::Wrapper"* }
%"struct.kj::parse::ParserRef<kj::parse::IteratorInput<capnp::compiler::Token::Reader, capnp::_::IndexingIterator<const capnp::List<capnp::compiler::Token, capnp::Kind::STRUCT>::Reader, capnp::compiler::Token::Reader> >, capnp::Orphan<capnp::compiler::Declaration::Param> >::Wrapper" = type opaque
%"class.kj::parse::ParserRef" = type { i8*, %"struct.kj::parse::ParserRef<kj::parse::IteratorInput<capnp::compiler::Token::Reader, capnp::_::IndexingIterator<const capnp::List<capnp::compiler::Token, capnp::Kind::STRUCT>::Reader, capnp::compiler::Token::Reader> >, capnp::compiler::CapnpParser::DeclParserResult>::Wrapper"* }
%"struct.kj::parse::ParserRef<kj::parse::IteratorInput<capnp::compiler::Token::Reader, capnp::_::IndexingIterator<const capnp::List<capnp::compiler::Token, capnp::Kind::STRUCT>::Reader, capnp::compiler::Token::Reader> >, capnp::compiler::CapnpParser::DeclParserResult>::Wrapper" = type opaque
%"class.kj::parse::IteratorInput" = type { %"class.kj::parse::IteratorInput"*, %"class.capnp::_::IndexingIterator", %"class.capnp::_::IndexingIterator", %"class.capnp::_::IndexingIterator" }
%"class.capnp::_::IndexingIterator" = type <{ %"class.capnp::List<capnp::compiler::Token, capnp::Kind::STRUCT>::Reader"*, i32, [4 x i8] }>
%"class.kj::_::NullableValue" = type { i8, %union.anon.13 }
%union.anon.13 = type { %"class.capnp::Orphan.14" }
%"class.capnp::Orphan.14" = type { %"class.capnp::_::OrphanBuilder" }
%"class.capnp::_::OrphanBuilder" = type { %"class.capnp::word", %"class.capnp::_::SegmentBuilder"*, %"class.capnp::_::CapTableBuilder"*, %"class.capnp::word"* }
%"class.kj::Maybe.15" = type { %"class.kj::_::NullableValue" }
%"class.kj::StringPtr" = type { %"class.kj::ArrayPtr" }
%"class.kj::ArrayPtr" = type { i8*, i64 }
%"class.capnp::compiler::Expression::Reader" = type { %"class.capnp::_::StructReader" }
%"class.capnp::MessageBuilder" = type <{ i32 (...)**, [22 x i8*], i8, [7 x i8] }>
%"class.capnp::compiler::LexedTokens::Reader" = type { %"class.capnp::_::StructReader" }
%"class.capnp::_::DirectWireValue" = type { i16 }
%class.anon = type { %"class.capnp::DynamicStruct::Builder"* }
%"class.capnp::_::DirectWireValue.27" = type { i32 }
%"class.capnp::compiler::Token::Reader" = type { %"class.capnp::_::StructReader" }
%"class.capnp::Orphan" = type { i32, %union.anon.6, %"class.capnp::_::OrphanBuilder" }
%union.anon.6 = type { %"class.capnp::ListSchema" }
%"class.kj::_::NullableValue.28" = type { i8, %union.anon.29 }
%union.anon.29 = type { %"class.capnp::Orphan" }
%"class.kj::Maybe.30" = type { %"class.kj::_::NullableValue.28" }
%class.anon.7 = type { %"class.capnp::Type"*, %"class.capnp::Orphanage"*, %"class.capnp::Orphan"* }
%"class.kj::ArrayPtr.18" = type { %"class.kj::String"*, i64 }
%"class.kj::CappedArray" = type <{ i64, [14 x i8], [2 x i8] }>
%"class.std::initializer_list" = type { i64*, i64 }
%"class.kj::Maybe.20" = type { %"class.kj::_::NullableValue.21" }
%"class.kj::_::NullableValue.21" = type { i8, %union.anon.22 }
%union.anon.22 = type { %"class.capnp::DynamicValue::Reader" }
%"class.kj::Maybe.23" = type { %"class.kj::_::NullableValue.24" }
%"class.kj::_::NullableValue.24" = type { i8, %union.anon.25 }
%union.anon.25 = type { %"class.kj::Array.26" }
%"class.kj::Array.26" = type { i8*, i64, %"class.kj::ArrayDisposer"* }
%"class.capnp::compiler::LocatedText::Reader" = type { %"class.capnp::_::StructReader" }

$_ZN2kj3strIJRN5capnp12DynamicValue6ReaderEEEENS_6StringEDpOT_ = comdat any

$__clang_call_terminate = comdat any

$_ZN2kj13ArrayDisposer8Dispose_INS_10StringTree6BranchELb0EE8destructEPv = comdat any

$_ZN2kj1_5Debug5FaultC2INS_9Exception4TypeEJRA23_KcEEEPS6_iT_S9_S9_DpOT0_ = comdat any

$_ZN2kj1_5Debug5FaultC2INS_9Exception4TypeEJRA24_KcEEEPS6_iT_S9_S9_DpOT0_ = comdat any

$_ZN2kj1_5Debug5FaultC2INS_9Exception4TypeEJRA22_KcEEEPS6_iT_S9_S9_DpOT0_ = comdat any

$_ZN2kj3strIJRNS_9StringPtrERA3_KcRjRA2_S3_S6_S5_EEENS_6StringEDpOT_ = comdat any

$_ZN2kj1_5Debug5FaultC2INS_9Exception4TypeEJNS_6StringEEEEPKciT_S8_S8_DpOT0_ = comdat any

$_ZN2kj1_5Debug5FaultC2INS_9Exception4TypeEJRA33_KcEEEPS6_iT_S9_S9_DpOT0_ = comdat any

$_ZN2kj1_5Debug5FaultC2INS_9Exception4TypeEJRA32_KcEEEPS6_iT_S9_S9_DpOT0_ = comdat any

$_ZN2kj1_5Debug5FaultC2INS_9Exception4TypeEJRA29_KcEEEPS6_iT_S9_S9_DpOT0_ = comdat any

$_ZTSN5capnp8compiler13ErrorReporterE = comdat any

$_ZTIN5capnp8compiler13ErrorReporterE = comdat any

$_ZTSN5capnp8compiler15ValueTranslator8ResolverE = comdat any

$_ZTIN5capnp8compiler15ValueTranslator8ResolverE = comdat any

@_ZN2kj1_L3STRE = internal constant %"struct.kj::_::Stringifier" undef, align 1, !dbg !0
@.str = private unnamed_addr constant [29 x i8] c"src/capnp/serialize-text.c++\00", align 1
@.str.1 = private unnamed_addr constant [42 x i8] c"parserInput.getPosition() == tokens.end()\00", align 1
@.str.2 = private unnamed_addr constant [25 x i8] c"\22Extra tokens in input.\22\00", align 1
@.str.3 = private unnamed_addr constant [23 x i8] c"Extra tokens in input.\00", align 1
@.str.4 = private unnamed_addr constant [26 x i8] c"\22Premature end of input.\22\00", align 1
@.str.5 = private unnamed_addr constant [24 x i8] c"Premature end of input.\00", align 1
@.str.6 = private unnamed_addr constant [12 x i8] c"Parse error\00", align 1
@.str.7 = private unnamed_addr constant [24 x i8] c"\22Failed to read input.\22\00", align 1
@.str.8 = private unnamed_addr constant [22 x i8] c"Failed to read input.\00", align 1
@_ZTVN12_GLOBAL__N_121ThrowingErrorReporterE = internal unnamed_addr constant { [4 x i8*] } { [4 x i8*] [i8* null, i8* bitcast ({ i8*, i8*, i8* }* @_ZTIN12_GLOBAL__N_121ThrowingErrorReporterE to i8*), i8* bitcast (void (%"class.(anonymous namespace)::ThrowingErrorReporter"*, i32, i32, i8*, i64)* @_ZN12_GLOBAL__N_121ThrowingErrorReporter8addErrorEjjN2kj9StringPtrE to i8*), i8* bitcast (i1 (%"class.(anonymous namespace)::ThrowingErrorReporter"*)* @_ZN12_GLOBAL__N_121ThrowingErrorReporter9hadErrorsEv to i8*)] }, align 8
@_ZTVN10__cxxabiv120__si_class_type_infoE = external global i8*
@_ZTSN12_GLOBAL__N_121ThrowingErrorReporterE = internal constant [40 x i8] c"N12_GLOBAL__N_121ThrowingErrorReporterE\00"
@_ZTVN10__cxxabiv117__class_type_infoE = external global i8*
@_ZTSN5capnp8compiler13ErrorReporterE = linkonce_odr constant [33 x i8] c"N5capnp8compiler13ErrorReporterE\00", comdat
@_ZTIN5capnp8compiler13ErrorReporterE = linkonce_odr constant { i8*, i8* } { i8* bitcast (i8** getelementptr inbounds (i8*, i8** @_ZTVN10__cxxabiv117__class_type_infoE, i64 2) to i8*), i8* getelementptr inbounds ([33 x i8], [33 x i8]* @_ZTSN5capnp8compiler13ErrorReporterE, i32 0, i32 0) }, comdat
@_ZTIN12_GLOBAL__N_121ThrowingErrorReporterE = internal constant { i8*, i8*, i8* } { i8* bitcast (i8** getelementptr inbounds (i8*, i8** @_ZTVN10__cxxabiv120__si_class_type_infoE, i64 2) to i8*), i8* getelementptr inbounds ([40 x i8], [40 x i8]* @_ZTSN12_GLOBAL__N_121ThrowingErrorReporterE, i32 0, i32 0), i8* bitcast ({ i8*, i8* }* @_ZTIN5capnp8compiler13ErrorReporterE to i8*) }
@.str.9 = private unnamed_addr constant [54 x i8] c"kj::str(message, \22 (\22, startByte, \22:\22, endByte, \22).\22)\00", align 1
@.str.10 = private unnamed_addr constant [3 x i8] c" (\00", align 1
@.str.11 = private unnamed_addr constant [2 x i8] c":\00", align 1
@.str.12 = private unnamed_addr constant [3 x i8] c").\00", align 1
@.str.13 = private unnamed_addr constant [21 x i8] c"expression.isTuple()\00", align 1
@.str.14 = private unnamed_addr constant [35 x i8] c"\22Input does not contain a struct.\22\00", align 1
@.str.15 = private unnamed_addr constant [33 x i8] c"Input does not contain a struct.\00", align 1
@_ZTVN12_GLOBAL__N_116ExternalResolverE = internal unnamed_addr constant { [4 x i8*] } { [4 x i8*] [i8* null, i8* bitcast ({ i8*, i8*, i8* }* @_ZTIN12_GLOBAL__N_116ExternalResolverE to i8*), i8* bitcast (void (%"class.kj::Maybe.20"*, %"class.(anonymous namespace)::ExternalResolver"*, %"class.capnp::compiler::Expression::Reader"*)* @_ZN12_GLOBAL__N_116ExternalResolver15resolveConstantEN5capnp8compiler10Expression6ReaderE to i8*), i8* bitcast (void (%"class.kj::Maybe.23"*, %"class.(anonymous namespace)::ExternalResolver"*, %"class.capnp::compiler::LocatedText::Reader"*)* @_ZN12_GLOBAL__N_116ExternalResolver9readEmbedEN5capnp8compiler11LocatedText6ReaderE to i8*)] }, align 8
@_ZTSN12_GLOBAL__N_116ExternalResolverE = internal constant [35 x i8] c"N12_GLOBAL__N_116ExternalResolverE\00"
@_ZTSN5capnp8compiler15ValueTranslator8ResolverE = linkonce_odr constant [44 x i8] c"N5capnp8compiler15ValueTranslator8ResolverE\00", comdat
@_ZTIN5capnp8compiler15ValueTranslator8ResolverE = linkonce_odr constant { i8*, i8* } { i8* bitcast (i8** getelementptr inbounds (i8*, i8** @_ZTVN10__cxxabiv117__class_type_infoE, i64 2) to i8*), i8* getelementptr inbounds ([44 x i8], [44 x i8]* @_ZTSN5capnp8compiler15ValueTranslator8ResolverE, i32 0, i32 0) }, comdat
@_ZTIN12_GLOBAL__N_116ExternalResolverE = internal constant { i8*, i8*, i8* } { i8* bitcast (i8** getelementptr inbounds (i8*, i8** @_ZTVN10__cxxabiv120__si_class_type_infoE, i64 2) to i8*), i8* getelementptr inbounds ([35 x i8], [35 x i8]* @_ZTSN12_GLOBAL__N_116ExternalResolverE, i32 0, i32 0), i8* bitcast ({ i8*, i8* }* @_ZTIN5capnp8compiler15ValueTranslator8ResolverE to i8*) }
@.str.16 = private unnamed_addr constant [34 x i8] c"\22External constants not allowed.\22\00", align 1
@.str.17 = private unnamed_addr constant [32 x i8] c"External constants not allowed.\00", align 1
@.str.18 = private unnamed_addr constant [31 x i8] c"\22External embeds not allowed.\22\00", align 1
@.str.19 = private unnamed_addr constant [29 x i8] c"External embeds not allowed.\00", align 1

@_ZN5capnp9TextCodecC1Ev = alias void (%"class.capnp::TextCodec"*), void (%"class.capnp::TextCodec"*)* @_ZN5capnp9TextCodecC2Ev
@_ZN5capnp9TextCodecD1Ev = alias void (%"class.capnp::TextCodec"*), void (%"class.capnp::TextCodec"*)* @_ZN5capnp9TextCodecD2Ev

; Function Attrs: nounwind uwtable
define void @_ZN5capnp9TextCodecC2Ev(%"class.capnp::TextCodec"* nocapture) unnamed_addr #0 align 2 !dbg !4460 {
  tail call void @llvm.dbg.value(metadata %"class.capnp::TextCodec"* %0, i64 0, metadata !8314, metadata !8316), !dbg !8317
  %2 = getelementptr inbounds %"class.capnp::TextCodec", %"class.capnp::TextCodec"* %0, i64 0, i32 0, !dbg !8318
  store i8 0, i8* %2, align 1, !dbg !8318, !tbaa !8319
  ret void, !dbg !8324
}

; Function Attrs: nounwind readnone speculatable
declare void @llvm.dbg.declare(metadata, metadata, metadata) #1

; Function Attrs: nounwind readnone uwtable
define void @_ZN5capnp9TextCodecD2Ev(%"class.capnp::TextCodec"* nocapture) unnamed_addr #2 align 2 !dbg !8325 {
  tail call void @llvm.dbg.value(metadata %"class.capnp::TextCodec"* %0, i64 0, metadata !8327, metadata !8316), !dbg !8328
  ret void, !dbg !8329
}

; Function Attrs: nounwind uwtable
define void @_ZN5capnp9TextCodec14setPrettyPrintEb(%"class.capnp::TextCodec"* nocapture, i1 zeroext) local_unnamed_addr #0 align 2 !dbg !8330 {
  tail call void @llvm.dbg.value(metadata %"class.capnp::TextCodec"* %0, i64 0, metadata !8332, metadata !8316), !dbg !8334
  %3 = zext i1 %1 to i8
  tail call void @llvm.dbg.value(metadata i1 %1, i64 0, metadata !8333, metadata !8316), !dbg !8335
  %4 = getelementptr inbounds %"class.capnp::TextCodec", %"class.capnp::TextCodec"* %0, i64 0, i32 0, !dbg !8336
  store i8 %3, i8* %4, align 1, !dbg !8337, !tbaa !8319
  ret void, !dbg !8338
}

; Function Attrs: uwtable
define void @_ZNK5capnp9TextCodec6encodeENS_12DynamicValue6ReaderE(%"class.kj::String"* noalias sret, %"class.capnp::TextCodec"* nocapture readonly, %"class.capnp::DynamicValue::Reader"*) local_unnamed_addr #3 align 2 personality i8* bitcast (i32 (...)* @__gxx_personality_v0 to i8*) !dbg !8339 {
  %4 = alloca %"class.kj::StringTree", align 8
  %5 = alloca %"class.capnp::DynamicStruct::Reader", align 8
  %6 = alloca %"class.kj::StringTree", align 8
  %7 = alloca %"class.capnp::DynamicList::Reader", align 8
  tail call void @llvm.dbg.value(metadata %"class.capnp::TextCodec"* %1, i64 0, metadata !8341, metadata !8316), !dbg !8344
  tail call void @llvm.dbg.declare(metadata %"class.capnp::DynamicValue::Reader"* %2, metadata !8343, metadata !8316), !dbg !8345
  %8 = getelementptr inbounds %"class.capnp::TextCodec", %"class.capnp::TextCodec"* %1, i64 0, i32 0, !dbg !8346
  %9 = load i8, i8* %8, align 1, !dbg !8346, !tbaa !8319, !range !8348
  %10 = icmp eq i8 %9, 0, !dbg !8346
  br i1 %10, label %11, label %12, !dbg !8349

; <label>:11:                                     ; preds = %3
  tail call void @_ZN2kj3strIJRN5capnp12DynamicValue6ReaderEEEENS_6StringEDpOT_(%"class.kj::String"* sret %0, %"class.capnp::DynamicValue::Reader"* dereferenceable(72) %2), !dbg !8350
  br label %170, !dbg !8352

; <label>:12:                                     ; preds = %3
  tail call void @llvm.dbg.value(metadata %"class.capnp::DynamicValue::Reader"* %2, i64 0, metadata !8353, metadata !8316), !dbg !8357
  %13 = getelementptr inbounds %"class.capnp::DynamicValue::Reader", %"class.capnp::DynamicValue::Reader"* %2, i64 0, i32 0, !dbg !8361
  %14 = load i32, i32* %13, align 8, !dbg !8361, !tbaa !8362
  switch i32 %14, label %169 [
    i32 10, label %15
    i32 8, label %92
  ], !dbg !8365

; <label>:15:                                     ; preds = %12
  %16 = bitcast %"class.kj::StringTree"* %4 to i8*, !dbg !8366
  call void @llvm.lifetime.start.p0i8(i64 56, i8* nonnull %16) #10, !dbg !8366
  tail call void @llvm.dbg.value(metadata %"class.capnp::DynamicValue::Reader"* %2, i64 0, metadata !8368, metadata !8316), !dbg !8379
  call void @_ZN5capnp12DynamicValue6Reader6AsImplINS_13DynamicStructELNS_4KindE7EE5applyERKS1_(%"class.capnp::DynamicStruct::Reader"* nonnull sret %5, %"class.capnp::DynamicValue::Reader"* nonnull dereferenceable(72) %2), !dbg !8381
  call void @_ZN5capnp11prettyPrintENS_13DynamicStruct6ReaderE(%"class.kj::StringTree"* nonnull sret %4, %"class.capnp::DynamicStruct::Reader"* byval nonnull align 8 %5), !dbg !8366
  invoke void @_ZNK2kj10StringTree7flattenEv(%"class.kj::String"* sret %0, %"class.kj::StringTree"* nonnull %4)
          to label %17 unwind label %53, !dbg !8382

; <label>:17:                                     ; preds = %15
  call void @llvm.dbg.value(metadata %"class.kj::StringTree"* %4, i64 0, metadata !8383, metadata !8316) #10, !dbg !8387
  %18 = getelementptr inbounds %"class.kj::StringTree", %"class.kj::StringTree"* %4, i64 0, i32 2, !dbg !8389
  call void @llvm.dbg.value(metadata %"class.kj::Array.5"* %18, i64 0, metadata !8391, metadata !8316) #10, !dbg !8395
  call void @llvm.dbg.value(metadata %"class.kj::Array.5"* %18, i64 0, metadata !8397, metadata !8316) #10, !dbg !8402
  %19 = getelementptr inbounds %"class.kj::Array.5", %"class.kj::Array.5"* %18, i64 0, i32 0, !dbg !8405
  %20 = load %"struct.kj::StringTree::Branch"*, %"struct.kj::StringTree::Branch"** %19, align 8, !dbg !8405, !tbaa !8406
  call void @llvm.dbg.value(metadata %"struct.kj::StringTree::Branch"* %20, i64 0, metadata !8400, metadata !8316) #10, !dbg !8410
  %21 = getelementptr inbounds %"class.kj::StringTree", %"class.kj::StringTree"* %4, i64 0, i32 2, i32 1, !dbg !8411
  %22 = load i64, i64* %21, align 8, !dbg !8411, !tbaa !8412
  call void @llvm.dbg.value(metadata i64 %22, i64 0, metadata !8401, metadata !8316) #10, !dbg !8413
  %23 = icmp eq %"struct.kj::StringTree::Branch"* %20, null, !dbg !8414
  br i1 %23, label %35, label %24, !dbg !8416

; <label>:24:                                     ; preds = %17
  %25 = getelementptr inbounds %"class.kj::StringTree", %"class.kj::StringTree"* %4, i64 0, i32 2, i32 2, !dbg !8417
  %26 = bitcast %"class.kj::Array.5"* %18 to i8*, !dbg !8417
  call void @llvm.memset.p0i8.i64(i8* %26, i8 0, i64 16, i32 8, i1 false) #10, !dbg !8419
  %27 = load %"class.kj::ArrayDisposer"*, %"class.kj::ArrayDisposer"** %25, align 8, !dbg !8417, !tbaa !8420
  call void @llvm.dbg.value(metadata %"class.kj::ArrayDisposer"* %27, i64 0, metadata !8421, metadata !8316) #10, !dbg !8433
  call void @llvm.dbg.value(metadata %"struct.kj::StringTree::Branch"* %20, i64 0, metadata !8430, metadata !8316) #10, !dbg !8435
  call void @llvm.dbg.value(metadata i64 %22, i64 0, metadata !8431, metadata !8316) #10, !dbg !8436
  call void @llvm.dbg.value(metadata i64 %22, i64 0, metadata !8432, metadata !8316) #10, !dbg !8437
  call void @llvm.dbg.value(metadata %"struct.kj::StringTree::Branch"* %20, i64 0, metadata !8438, metadata !8316) #10, !dbg !8454
  call void @llvm.dbg.value(metadata i64 %22, i64 0, metadata !8451, metadata !8316) #10, !dbg !8456
  call void @llvm.dbg.value(metadata i64 %22, i64 0, metadata !8452, metadata !8316) #10, !dbg !8457
  call void @llvm.dbg.value(metadata %"class.kj::ArrayDisposer"* %27, i64 0, metadata !8453, metadata !8316) #10, !dbg !8458
  %28 = bitcast %"class.kj::ArrayDisposer"* %27 to void (%"class.kj::ArrayDisposer"*, i8*, i64, i64, i64, void (i8*)*)***, !dbg !8459
  %29 = load void (%"class.kj::ArrayDisposer"*, i8*, i64, i64, i64, void (i8*)*)**, void (%"class.kj::ArrayDisposer"*, i8*, i64, i64, i64, void (i8*)*)*** %28, align 8, !dbg !8459, !tbaa !8460
  %30 = load void (%"class.kj::ArrayDisposer"*, i8*, i64, i64, i64, void (i8*)*)*, void (%"class.kj::ArrayDisposer"*, i8*, i64, i64, i64, void (i8*)*)** %29, align 8, !dbg !8459
  %31 = bitcast %"struct.kj::StringTree::Branch"* %20 to i8*, !dbg !8462
  invoke void %30(%"class.kj::ArrayDisposer"* nonnull %27, i8* %31, i64 64, i64 %22, i64 %22, void (i8*)* nonnull @_ZN2kj13ArrayDisposer8Dispose_INS_10StringTree6BranchELb0EE8destructEPv)
          to label %35 unwind label %32, !dbg !8459

; <label>:32:                                     ; preds = %24
  %33 = landingpad { i8*, i32 }
          catch i8* null, !dbg !8463
  %34 = extractvalue { i8*, i32 } %33, 0, !dbg !8463
  call void @__clang_call_terminate(i8* %34) #11, !dbg !8463
  unreachable, !dbg !8463

; <label>:35:                                     ; preds = %24, %17
  %36 = getelementptr inbounds %"class.kj::StringTree", %"class.kj::StringTree"* %4, i64 0, i32 1, !dbg !8389
  call void @llvm.dbg.value(metadata %"class.kj::String"* %36, i64 0, metadata !8464, metadata !8316) #10, !dbg !8469
  call void @llvm.dbg.value(metadata %"class.kj::String"* %36, i64 0, metadata !8471, metadata !8475) #10, !dbg !8476
  call void @llvm.dbg.value(metadata %"class.kj::String"* %36, i64 0, metadata !8479, metadata !8475) #10, !dbg !8484
  %37 = getelementptr inbounds %"class.kj::String", %"class.kj::String"* %36, i64 0, i32 0, i32 0, !dbg !8487
  %38 = load i8*, i8** %37, align 8, !dbg !8487, !tbaa !8488
  call void @llvm.dbg.value(metadata i8* %38, i64 0, metadata !8482, metadata !8316) #10, !dbg !8490
  %39 = getelementptr inbounds %"class.kj::StringTree", %"class.kj::StringTree"* %4, i64 0, i32 1, i32 0, i32 1, !dbg !8491
  %40 = load i64, i64* %39, align 8, !dbg !8491, !tbaa !8492
  call void @llvm.dbg.value(metadata i64 %40, i64 0, metadata !8483, metadata !8316) #10, !dbg !8493
  %41 = icmp eq i8* %38, null, !dbg !8494
  br i1 %41, label %52, label %42, !dbg !8496

; <label>:42:                                     ; preds = %35
  %43 = getelementptr inbounds %"class.kj::StringTree", %"class.kj::StringTree"* %4, i64 0, i32 1, i32 0, i32 2, !dbg !8497
  %44 = bitcast %"class.kj::String"* %36 to i8*, !dbg !8497
  call void @llvm.memset.p0i8.i64(i8* %44, i8 0, i64 16, i32 8, i1 false) #10, !dbg !8499
  %45 = load %"class.kj::ArrayDisposer"*, %"class.kj::ArrayDisposer"** %43, align 8, !dbg !8497, !tbaa !8500
  call void @llvm.dbg.value(metadata %"class.kj::ArrayDisposer"* %45, i64 0, metadata !8501, metadata !8316) #10, !dbg !8510
  call void @llvm.dbg.value(metadata i8* %38, i64 0, metadata !8507, metadata !8316) #10, !dbg !8512
  call void @llvm.dbg.value(metadata i64 %40, i64 0, metadata !8508, metadata !8316) #10, !dbg !8513
  call void @llvm.dbg.value(metadata i64 %40, i64 0, metadata !8509, metadata !8316) #10, !dbg !8514
  call void @llvm.dbg.value(metadata i8* %38, i64 0, metadata !8515, metadata !8316) #10, !dbg !8528
  call void @llvm.dbg.value(metadata i64 %40, i64 0, metadata !8525, metadata !8316) #10, !dbg !8530
  call void @llvm.dbg.value(metadata i64 %40, i64 0, metadata !8526, metadata !8316) #10, !dbg !8531
  call void @llvm.dbg.value(metadata %"class.kj::ArrayDisposer"* %45, i64 0, metadata !8527, metadata !8316) #10, !dbg !8532
  %46 = bitcast %"class.kj::ArrayDisposer"* %45 to void (%"class.kj::ArrayDisposer"*, i8*, i64, i64, i64, void (i8*)*)***, !dbg !8533
  %47 = load void (%"class.kj::ArrayDisposer"*, i8*, i64, i64, i64, void (i8*)*)**, void (%"class.kj::ArrayDisposer"*, i8*, i64, i64, i64, void (i8*)*)*** %46, align 8, !dbg !8533, !tbaa !8460
  %48 = load void (%"class.kj::ArrayDisposer"*, i8*, i64, i64, i64, void (i8*)*)*, void (%"class.kj::ArrayDisposer"*, i8*, i64, i64, i64, void (i8*)*)** %47, align 8, !dbg !8533
  invoke void %48(%"class.kj::ArrayDisposer"* nonnull %45, i8* nonnull %38, i64 1, i64 %40, i64 %40, void (i8*)* null)
          to label %52 unwind label %49, !dbg !8533

; <label>:49:                                     ; preds = %42
  %50 = landingpad { i8*, i32 }
          catch i8* null, !dbg !8534
  %51 = extractvalue { i8*, i32 } %50, 0, !dbg !8534
  call void @__clang_call_terminate(i8* %51) #11, !dbg !8534
  unreachable, !dbg !8534

; <label>:52:                                     ; preds = %35, %42
  call void @llvm.lifetime.end.p0i8(i64 56, i8* nonnull %16) #10, !dbg !8535
  br label %170, !dbg !8535

; <label>:53:                                     ; preds = %15
  %54 = landingpad { i8*, i32 }
          cleanup, !dbg !8536
  %55 = extractvalue { i8*, i32 } %54, 0, !dbg !8536
  %56 = extractvalue { i8*, i32 } %54, 1, !dbg !8536
  call void @llvm.dbg.value(metadata %"class.kj::StringTree"* %4, i64 0, metadata !8383, metadata !8316) #10, !dbg !8537
  %57 = getelementptr inbounds %"class.kj::StringTree", %"class.kj::StringTree"* %4, i64 0, i32 2, !dbg !8539
  call void @llvm.dbg.value(metadata %"class.kj::Array.5"* %57, i64 0, metadata !8391, metadata !8316) #10, !dbg !8540
  call void @llvm.dbg.value(metadata %"class.kj::Array.5"* %57, i64 0, metadata !8397, metadata !8316) #10, !dbg !8542
  %58 = getelementptr inbounds %"class.kj::Array.5", %"class.kj::Array.5"* %57, i64 0, i32 0, !dbg !8544
  %59 = load %"struct.kj::StringTree::Branch"*, %"struct.kj::StringTree::Branch"** %58, align 8, !dbg !8544, !tbaa !8406
  call void @llvm.dbg.value(metadata %"struct.kj::StringTree::Branch"* %59, i64 0, metadata !8400, metadata !8316) #10, !dbg !8545
  %60 = getelementptr inbounds %"class.kj::StringTree", %"class.kj::StringTree"* %4, i64 0, i32 2, i32 1, !dbg !8546
  %61 = load i64, i64* %60, align 8, !dbg !8546, !tbaa !8412
  call void @llvm.dbg.value(metadata i64 %61, i64 0, metadata !8401, metadata !8316) #10, !dbg !8547
  %62 = icmp eq %"struct.kj::StringTree::Branch"* %59, null, !dbg !8548
  br i1 %62, label %74, label %63, !dbg !8549

; <label>:63:                                     ; preds = %53
  %64 = getelementptr inbounds %"class.kj::StringTree", %"class.kj::StringTree"* %4, i64 0, i32 2, i32 2, !dbg !8550
  %65 = bitcast %"class.kj::Array.5"* %57 to i8*, !dbg !8550
  call void @llvm.memset.p0i8.i64(i8* %65, i8 0, i64 16, i32 8, i1 false) #10, !dbg !8551
  %66 = load %"class.kj::ArrayDisposer"*, %"class.kj::ArrayDisposer"** %64, align 8, !dbg !8550, !tbaa !8420
  call void @llvm.dbg.value(metadata %"class.kj::ArrayDisposer"* %66, i64 0, metadata !8421, metadata !8316) #10, !dbg !8552
  call void @llvm.dbg.value(metadata %"struct.kj::StringTree::Branch"* %59, i64 0, metadata !8430, metadata !8316) #10, !dbg !8554
  call void @llvm.dbg.value(metadata i64 %61, i64 0, metadata !8431, metadata !8316) #10, !dbg !8555
  call void @llvm.dbg.value(metadata i64 %61, i64 0, metadata !8432, metadata !8316) #10, !dbg !8556
  call void @llvm.dbg.value(metadata %"struct.kj::StringTree::Branch"* %59, i64 0, metadata !8438, metadata !8316) #10, !dbg !8557
  call void @llvm.dbg.value(metadata i64 %61, i64 0, metadata !8451, metadata !8316) #10, !dbg !8559
  call void @llvm.dbg.value(metadata i64 %61, i64 0, metadata !8452, metadata !8316) #10, !dbg !8560
  call void @llvm.dbg.value(metadata %"class.kj::ArrayDisposer"* %66, i64 0, metadata !8453, metadata !8316) #10, !dbg !8561
  %67 = bitcast %"class.kj::ArrayDisposer"* %66 to void (%"class.kj::ArrayDisposer"*, i8*, i64, i64, i64, void (i8*)*)***, !dbg !8562
  %68 = load void (%"class.kj::ArrayDisposer"*, i8*, i64, i64, i64, void (i8*)*)**, void (%"class.kj::ArrayDisposer"*, i8*, i64, i64, i64, void (i8*)*)*** %67, align 8, !dbg !8562, !tbaa !8460
  %69 = load void (%"class.kj::ArrayDisposer"*, i8*, i64, i64, i64, void (i8*)*)*, void (%"class.kj::ArrayDisposer"*, i8*, i64, i64, i64, void (i8*)*)** %68, align 8, !dbg !8562
  %70 = bitcast %"struct.kj::StringTree::Branch"* %59 to i8*, !dbg !8563
  invoke void %69(%"class.kj::ArrayDisposer"* nonnull %66, i8* %70, i64 64, i64 %61, i64 %61, void (i8*)* nonnull @_ZN2kj13ArrayDisposer8Dispose_INS_10StringTree6BranchELb0EE8destructEPv)
          to label %74 unwind label %71, !dbg !8562

; <label>:71:                                     ; preds = %63
  %72 = landingpad { i8*, i32 }
          catch i8* null, !dbg !8564
  %73 = extractvalue { i8*, i32 } %72, 0, !dbg !8564
  call void @__clang_call_terminate(i8* %73) #11, !dbg !8564
  unreachable, !dbg !8564

; <label>:74:                                     ; preds = %63, %53
  %75 = getelementptr inbounds %"class.kj::StringTree", %"class.kj::StringTree"* %4, i64 0, i32 1, !dbg !8539
  call void @llvm.dbg.value(metadata %"class.kj::String"* %75, i64 0, metadata !8464, metadata !8316) #10, !dbg !8565
  call void @llvm.dbg.value(metadata %"class.kj::String"* %75, i64 0, metadata !8471, metadata !8475) #10, !dbg !8567
  call void @llvm.dbg.value(metadata %"class.kj::String"* %75, i64 0, metadata !8479, metadata !8475) #10, !dbg !8569
  %76 = getelementptr inbounds %"class.kj::String", %"class.kj::String"* %75, i64 0, i32 0, i32 0, !dbg !8571
  %77 = load i8*, i8** %76, align 8, !dbg !8571, !tbaa !8488
  call void @llvm.dbg.value(metadata i8* %77, i64 0, metadata !8482, metadata !8316) #10, !dbg !8572
  %78 = getelementptr inbounds %"class.kj::StringTree", %"class.kj::StringTree"* %4, i64 0, i32 1, i32 0, i32 1, !dbg !8573
  %79 = load i64, i64* %78, align 8, !dbg !8573, !tbaa !8492
  call void @llvm.dbg.value(metadata i64 %79, i64 0, metadata !8483, metadata !8316) #10, !dbg !8574
  %80 = icmp eq i8* %77, null, !dbg !8575
  br i1 %80, label %91, label %81, !dbg !8576

; <label>:81:                                     ; preds = %74
  %82 = getelementptr inbounds %"class.kj::StringTree", %"class.kj::StringTree"* %4, i64 0, i32 1, i32 0, i32 2, !dbg !8577
  %83 = bitcast %"class.kj::String"* %75 to i8*, !dbg !8577
  call void @llvm.memset.p0i8.i64(i8* %83, i8 0, i64 16, i32 8, i1 false) #10, !dbg !8578
  %84 = load %"class.kj::ArrayDisposer"*, %"class.kj::ArrayDisposer"** %82, align 8, !dbg !8577, !tbaa !8500
  call void @llvm.dbg.value(metadata %"class.kj::ArrayDisposer"* %84, i64 0, metadata !8501, metadata !8316) #10, !dbg !8579
  call void @llvm.dbg.value(metadata i8* %77, i64 0, metadata !8507, metadata !8316) #10, !dbg !8581
  call void @llvm.dbg.value(metadata i64 %79, i64 0, metadata !8508, metadata !8316) #10, !dbg !8582
  call void @llvm.dbg.value(metadata i64 %79, i64 0, metadata !8509, metadata !8316) #10, !dbg !8583
  call void @llvm.dbg.value(metadata i8* %77, i64 0, metadata !8515, metadata !8316) #10, !dbg !8584
  call void @llvm.dbg.value(metadata i64 %79, i64 0, metadata !8525, metadata !8316) #10, !dbg !8586
  call void @llvm.dbg.value(metadata i64 %79, i64 0, metadata !8526, metadata !8316) #10, !dbg !8587
  call void @llvm.dbg.value(metadata %"class.kj::ArrayDisposer"* %84, i64 0, metadata !8527, metadata !8316) #10, !dbg !8588
  %85 = bitcast %"class.kj::ArrayDisposer"* %84 to void (%"class.kj::ArrayDisposer"*, i8*, i64, i64, i64, void (i8*)*)***, !dbg !8589
  %86 = load void (%"class.kj::ArrayDisposer"*, i8*, i64, i64, i64, void (i8*)*)**, void (%"class.kj::ArrayDisposer"*, i8*, i64, i64, i64, void (i8*)*)*** %85, align 8, !dbg !8589, !tbaa !8460
  %87 = load void (%"class.kj::ArrayDisposer"*, i8*, i64, i64, i64, void (i8*)*)*, void (%"class.kj::ArrayDisposer"*, i8*, i64, i64, i64, void (i8*)*)** %86, align 8, !dbg !8589
  invoke void %87(%"class.kj::ArrayDisposer"* nonnull %84, i8* nonnull %77, i64 1, i64 %79, i64 %79, void (i8*)* null)
          to label %91 unwind label %88, !dbg !8589

; <label>:88:                                     ; preds = %81
  %89 = landingpad { i8*, i32 }
          catch i8* null, !dbg !8590
  %90 = extractvalue { i8*, i32 } %89, 0, !dbg !8590
  call void @__clang_call_terminate(i8* %90) #11, !dbg !8590
  unreachable, !dbg !8590

; <label>:91:                                     ; preds = %74, %81
  call void @llvm.lifetime.end.p0i8(i64 56, i8* nonnull %16) #10, !dbg !8535
  br label %171, !dbg !8535

; <label>:92:                                     ; preds = %12
  %93 = bitcast %"class.kj::StringTree"* %6 to i8*, !dbg !8591
  call void @llvm.lifetime.start.p0i8(i64 56, i8* nonnull %93) #10, !dbg !8591
  tail call void @llvm.dbg.value(metadata %"class.capnp::DynamicValue::Reader"* %2, i64 0, metadata !8594, metadata !8316), !dbg !8604
  call void @_ZN5capnp12DynamicValue6Reader6AsImplINS_11DynamicListELNS_4KindE7EE5applyERKS1_(%"class.capnp::DynamicList::Reader"* nonnull sret %7, %"class.capnp::DynamicValue::Reader"* nonnull dereferenceable(72) %2), !dbg !8606
  call void @_ZN5capnp11prettyPrintENS_11DynamicList6ReaderE(%"class.kj::StringTree"* nonnull sret %6, %"class.capnp::DynamicList::Reader"* byval nonnull align 8 %7), !dbg !8591
  invoke void @_ZNK2kj10StringTree7flattenEv(%"class.kj::String"* sret %0, %"class.kj::StringTree"* nonnull %6)
          to label %94 unwind label %130, !dbg !8607

; <label>:94:                                     ; preds = %92
  call void @llvm.dbg.value(metadata %"class.kj::StringTree"* %6, i64 0, metadata !8383, metadata !8316) #10, !dbg !8608
  %95 = getelementptr inbounds %"class.kj::StringTree", %"class.kj::StringTree"* %6, i64 0, i32 2, !dbg !8610
  call void @llvm.dbg.value(metadata %"class.kj::Array.5"* %95, i64 0, metadata !8391, metadata !8316) #10, !dbg !8611
  call void @llvm.dbg.value(metadata %"class.kj::Array.5"* %95, i64 0, metadata !8397, metadata !8316) #10, !dbg !8613
  %96 = getelementptr inbounds %"class.kj::Array.5", %"class.kj::Array.5"* %95, i64 0, i32 0, !dbg !8615
  %97 = load %"struct.kj::StringTree::Branch"*, %"struct.kj::StringTree::Branch"** %96, align 8, !dbg !8615, !tbaa !8406
  call void @llvm.dbg.value(metadata %"struct.kj::StringTree::Branch"* %97, i64 0, metadata !8400, metadata !8316) #10, !dbg !8616
  %98 = getelementptr inbounds %"class.kj::StringTree", %"class.kj::StringTree"* %6, i64 0, i32 2, i32 1, !dbg !8617
  %99 = load i64, i64* %98, align 8, !dbg !8617, !tbaa !8412
  call void @llvm.dbg.value(metadata i64 %99, i64 0, metadata !8401, metadata !8316) #10, !dbg !8618
  %100 = icmp eq %"struct.kj::StringTree::Branch"* %97, null, !dbg !8619
  br i1 %100, label %112, label %101, !dbg !8620

; <label>:101:                                    ; preds = %94
  %102 = getelementptr inbounds %"class.kj::StringTree", %"class.kj::StringTree"* %6, i64 0, i32 2, i32 2, !dbg !8621
  %103 = bitcast %"class.kj::Array.5"* %95 to i8*, !dbg !8621
  call void @llvm.memset.p0i8.i64(i8* %103, i8 0, i64 16, i32 8, i1 false) #10, !dbg !8622
  %104 = load %"class.kj::ArrayDisposer"*, %"class.kj::ArrayDisposer"** %102, align 8, !dbg !8621, !tbaa !8420
  call void @llvm.dbg.value(metadata %"class.kj::ArrayDisposer"* %104, i64 0, metadata !8421, metadata !8316) #10, !dbg !8623
  call void @llvm.dbg.value(metadata %"struct.kj::StringTree::Branch"* %97, i64 0, metadata !8430, metadata !8316) #10, !dbg !8625
  call void @llvm.dbg.value(metadata i64 %99, i64 0, metadata !8431, metadata !8316) #10, !dbg !8626
  call void @llvm.dbg.value(metadata i64 %99, i64 0, metadata !8432, metadata !8316) #10, !dbg !8627
  call void @llvm.dbg.value(metadata %"struct.kj::StringTree::Branch"* %97, i64 0, metadata !8438, metadata !8316) #10, !dbg !8628
  call void @llvm.dbg.value(metadata i64 %99, i64 0, metadata !8451, metadata !8316) #10, !dbg !8630
  call void @llvm.dbg.value(metadata i64 %99, i64 0, metadata !8452, metadata !8316) #10, !dbg !8631
  call void @llvm.dbg.value(metadata %"class.kj::ArrayDisposer"* %104, i64 0, metadata !8453, metadata !8316) #10, !dbg !8632
  %105 = bitcast %"class.kj::ArrayDisposer"* %104 to void (%"class.kj::ArrayDisposer"*, i8*, i64, i64, i64, void (i8*)*)***, !dbg !8633
  %106 = load void (%"class.kj::ArrayDisposer"*, i8*, i64, i64, i64, void (i8*)*)**, void (%"class.kj::ArrayDisposer"*, i8*, i64, i64, i64, void (i8*)*)*** %105, align 8, !dbg !8633, !tbaa !8460
  %107 = load void (%"class.kj::ArrayDisposer"*, i8*, i64, i64, i64, void (i8*)*)*, void (%"class.kj::ArrayDisposer"*, i8*, i64, i64, i64, void (i8*)*)** %106, align 8, !dbg !8633
  %108 = bitcast %"struct.kj::StringTree::Branch"* %97 to i8*, !dbg !8634
  invoke void %107(%"class.kj::ArrayDisposer"* nonnull %104, i8* %108, i64 64, i64 %99, i64 %99, void (i8*)* nonnull @_ZN2kj13ArrayDisposer8Dispose_INS_10StringTree6BranchELb0EE8destructEPv)
          to label %112 unwind label %109, !dbg !8633

; <label>:109:                                    ; preds = %101
  %110 = landingpad { i8*, i32 }
          catch i8* null, !dbg !8635
  %111 = extractvalue { i8*, i32 } %110, 0, !dbg !8635
  call void @__clang_call_terminate(i8* %111) #11, !dbg !8635
  unreachable, !dbg !8635

; <label>:112:                                    ; preds = %101, %94
  %113 = getelementptr inbounds %"class.kj::StringTree", %"class.kj::StringTree"* %6, i64 0, i32 1, !dbg !8610
  call void @llvm.dbg.value(metadata %"class.kj::String"* %113, i64 0, metadata !8464, metadata !8316) #10, !dbg !8636
  call void @llvm.dbg.value(metadata %"class.kj::String"* %113, i64 0, metadata !8471, metadata !8475) #10, !dbg !8638
  call void @llvm.dbg.value(metadata %"class.kj::String"* %113, i64 0, metadata !8479, metadata !8475) #10, !dbg !8640
  %114 = getelementptr inbounds %"class.kj::String", %"class.kj::String"* %113, i64 0, i32 0, i32 0, !dbg !8642
  %115 = load i8*, i8** %114, align 8, !dbg !8642, !tbaa !8488
  call void @llvm.dbg.value(metadata i8* %115, i64 0, metadata !8482, metadata !8316) #10, !dbg !8643
  %116 = getelementptr inbounds %"class.kj::StringTree", %"class.kj::StringTree"* %6, i64 0, i32 1, i32 0, i32 1, !dbg !8644
  %117 = load i64, i64* %116, align 8, !dbg !8644, !tbaa !8492
  call void @llvm.dbg.value(metadata i64 %117, i64 0, metadata !8483, metadata !8316) #10, !dbg !8645
  %118 = icmp eq i8* %115, null, !dbg !8646
  br i1 %118, label %129, label %119, !dbg !8647

; <label>:119:                                    ; preds = %112
  %120 = getelementptr inbounds %"class.kj::StringTree", %"class.kj::StringTree"* %6, i64 0, i32 1, i32 0, i32 2, !dbg !8648
  %121 = bitcast %"class.kj::String"* %113 to i8*, !dbg !8648
  call void @llvm.memset.p0i8.i64(i8* %121, i8 0, i64 16, i32 8, i1 false) #10, !dbg !8649
  %122 = load %"class.kj::ArrayDisposer"*, %"class.kj::ArrayDisposer"** %120, align 8, !dbg !8648, !tbaa !8500
  call void @llvm.dbg.value(metadata %"class.kj::ArrayDisposer"* %122, i64 0, metadata !8501, metadata !8316) #10, !dbg !8650
  call void @llvm.dbg.value(metadata i8* %115, i64 0, metadata !8507, metadata !8316) #10, !dbg !8652
  call void @llvm.dbg.value(metadata i64 %117, i64 0, metadata !8508, metadata !8316) #10, !dbg !8653
  call void @llvm.dbg.value(metadata i64 %117, i64 0, metadata !8509, metadata !8316) #10, !dbg !8654
  call void @llvm.dbg.value(metadata i8* %115, i64 0, metadata !8515, metadata !8316) #10, !dbg !8655
  call void @llvm.dbg.value(metadata i64 %117, i64 0, metadata !8525, metadata !8316) #10, !dbg !8657
  call void @llvm.dbg.value(metadata i64 %117, i64 0, metadata !8526, metadata !8316) #10, !dbg !8658
  call void @llvm.dbg.value(metadata %"class.kj::ArrayDisposer"* %122, i64 0, metadata !8527, metadata !8316) #10, !dbg !8659
  %123 = bitcast %"class.kj::ArrayDisposer"* %122 to void (%"class.kj::ArrayDisposer"*, i8*, i64, i64, i64, void (i8*)*)***, !dbg !8660
  %124 = load void (%"class.kj::ArrayDisposer"*, i8*, i64, i64, i64, void (i8*)*)**, void (%"class.kj::ArrayDisposer"*, i8*, i64, i64, i64, void (i8*)*)*** %123, align 8, !dbg !8660, !tbaa !8460
  %125 = load void (%"class.kj::ArrayDisposer"*, i8*, i64, i64, i64, void (i8*)*)*, void (%"class.kj::ArrayDisposer"*, i8*, i64, i64, i64, void (i8*)*)** %124, align 8, !dbg !8660
  invoke void %125(%"class.kj::ArrayDisposer"* nonnull %122, i8* nonnull %115, i64 1, i64 %117, i64 %117, void (i8*)* null)
          to label %129 unwind label %126, !dbg !8660

; <label>:126:                                    ; preds = %119
  %127 = landingpad { i8*, i32 }
          catch i8* null, !dbg !8661
  %128 = extractvalue { i8*, i32 } %127, 0, !dbg !8661
  call void @__clang_call_terminate(i8* %128) #11, !dbg !8661
  unreachable, !dbg !8661

; <label>:129:                                    ; preds = %112, %119
  call void @llvm.lifetime.end.p0i8(i64 56, i8* nonnull %93) #10, !dbg !8662
  br label %170, !dbg !8662

; <label>:130:                                    ; preds = %92
  %131 = landingpad { i8*, i32 }
          cleanup, !dbg !8663
  %132 = extractvalue { i8*, i32 } %131, 0, !dbg !8663
  %133 = extractvalue { i8*, i32 } %131, 1, !dbg !8663
  call void @llvm.dbg.value(metadata %"class.kj::StringTree"* %6, i64 0, metadata !8383, metadata !8316) #10, !dbg !8664
  %134 = getelementptr inbounds %"class.kj::StringTree", %"class.kj::StringTree"* %6, i64 0, i32 2, !dbg !8666
  call void @llvm.dbg.value(metadata %"class.kj::Array.5"* %134, i64 0, metadata !8391, metadata !8316) #10, !dbg !8667
  call void @llvm.dbg.value(metadata %"class.kj::Array.5"* %134, i64 0, metadata !8397, metadata !8316) #10, !dbg !8669
  %135 = getelementptr inbounds %"class.kj::Array.5", %"class.kj::Array.5"* %134, i64 0, i32 0, !dbg !8671
  %136 = load %"struct.kj::StringTree::Branch"*, %"struct.kj::StringTree::Branch"** %135, align 8, !dbg !8671, !tbaa !8406
  call void @llvm.dbg.value(metadata %"struct.kj::StringTree::Branch"* %136, i64 0, metadata !8400, metadata !8316) #10, !dbg !8672
  %137 = getelementptr inbounds %"class.kj::StringTree", %"class.kj::StringTree"* %6, i64 0, i32 2, i32 1, !dbg !8673
  %138 = load i64, i64* %137, align 8, !dbg !8673, !tbaa !8412
  call void @llvm.dbg.value(metadata i64 %138, i64 0, metadata !8401, metadata !8316) #10, !dbg !8674
  %139 = icmp eq %"struct.kj::StringTree::Branch"* %136, null, !dbg !8675
  br i1 %139, label %151, label %140, !dbg !8676

; <label>:140:                                    ; preds = %130
  %141 = getelementptr inbounds %"class.kj::StringTree", %"class.kj::StringTree"* %6, i64 0, i32 2, i32 2, !dbg !8677
  %142 = bitcast %"class.kj::Array.5"* %134 to i8*, !dbg !8677
  call void @llvm.memset.p0i8.i64(i8* %142, i8 0, i64 16, i32 8, i1 false) #10, !dbg !8678
  %143 = load %"class.kj::ArrayDisposer"*, %"class.kj::ArrayDisposer"** %141, align 8, !dbg !8677, !tbaa !8420
  call void @llvm.dbg.value(metadata %"class.kj::ArrayDisposer"* %143, i64 0, metadata !8421, metadata !8316) #10, !dbg !8679
  call void @llvm.dbg.value(metadata %"struct.kj::StringTree::Branch"* %136, i64 0, metadata !8430, metadata !8316) #10, !dbg !8681
  call void @llvm.dbg.value(metadata i64 %138, i64 0, metadata !8431, metadata !8316) #10, !dbg !8682
  call void @llvm.dbg.value(metadata i64 %138, i64 0, metadata !8432, metadata !8316) #10, !dbg !8683
  call void @llvm.dbg.value(metadata %"struct.kj::StringTree::Branch"* %136, i64 0, metadata !8438, metadata !8316) #10, !dbg !8684
  call void @llvm.dbg.value(metadata i64 %138, i64 0, metadata !8451, metadata !8316) #10, !dbg !8686
  call void @llvm.dbg.value(metadata i64 %138, i64 0, metadata !8452, metadata !8316) #10, !dbg !8687
  call void @llvm.dbg.value(metadata %"class.kj::ArrayDisposer"* %143, i64 0, metadata !8453, metadata !8316) #10, !dbg !8688
  %144 = bitcast %"class.kj::ArrayDisposer"* %143 to void (%"class.kj::ArrayDisposer"*, i8*, i64, i64, i64, void (i8*)*)***, !dbg !8689
  %145 = load void (%"class.kj::ArrayDisposer"*, i8*, i64, i64, i64, void (i8*)*)**, void (%"class.kj::ArrayDisposer"*, i8*, i64, i64, i64, void (i8*)*)*** %144, align 8, !dbg !8689, !tbaa !8460
  %146 = load void (%"class.kj::ArrayDisposer"*, i8*, i64, i64, i64, void (i8*)*)*, void (%"class.kj::ArrayDisposer"*, i8*, i64, i64, i64, void (i8*)*)** %145, align 8, !dbg !8689
  %147 = bitcast %"struct.kj::StringTree::Branch"* %136 to i8*, !dbg !8690
  invoke void %146(%"class.kj::ArrayDisposer"* nonnull %143, i8* %147, i64 64, i64 %138, i64 %138, void (i8*)* nonnull @_ZN2kj13ArrayDisposer8Dispose_INS_10StringTree6BranchELb0EE8destructEPv)
          to label %151 unwind label %148, !dbg !8689

; <label>:148:                                    ; preds = %140
  %149 = landingpad { i8*, i32 }
          catch i8* null, !dbg !8691
  %150 = extractvalue { i8*, i32 } %149, 0, !dbg !8691
  call void @__clang_call_terminate(i8* %150) #11, !dbg !8691
  unreachable, !dbg !8691

; <label>:151:                                    ; preds = %140, %130
  %152 = getelementptr inbounds %"class.kj::StringTree", %"class.kj::StringTree"* %6, i64 0, i32 1, !dbg !8666
  call void @llvm.dbg.value(metadata %"class.kj::String"* %152, i64 0, metadata !8464, metadata !8316) #10, !dbg !8692
  call void @llvm.dbg.value(metadata %"class.kj::String"* %152, i64 0, metadata !8471, metadata !8475) #10, !dbg !8694
  call void @llvm.dbg.value(metadata %"class.kj::String"* %152, i64 0, metadata !8479, metadata !8475) #10, !dbg !8696
  %153 = getelementptr inbounds %"class.kj::String", %"class.kj::String"* %152, i64 0, i32 0, i32 0, !dbg !8698
  %154 = load i8*, i8** %153, align 8, !dbg !8698, !tbaa !8488
  call void @llvm.dbg.value(metadata i8* %154, i64 0, metadata !8482, metadata !8316) #10, !dbg !8699
  %155 = getelementptr inbounds %"class.kj::StringTree", %"class.kj::StringTree"* %6, i64 0, i32 1, i32 0, i32 1, !dbg !8700
  %156 = load i64, i64* %155, align 8, !dbg !8700, !tbaa !8492
  call void @llvm.dbg.value(metadata i64 %156, i64 0, metadata !8483, metadata !8316) #10, !dbg !8701
  %157 = icmp eq i8* %154, null, !dbg !8702
  br i1 %157, label %168, label %158, !dbg !8703

; <label>:158:                                    ; preds = %151
  %159 = getelementptr inbounds %"class.kj::StringTree", %"class.kj::StringTree"* %6, i64 0, i32 1, i32 0, i32 2, !dbg !8704
  %160 = bitcast %"class.kj::String"* %152 to i8*, !dbg !8704
  call void @llvm.memset.p0i8.i64(i8* %160, i8 0, i64 16, i32 8, i1 false) #10, !dbg !8705
  %161 = load %"class.kj::ArrayDisposer"*, %"class.kj::ArrayDisposer"** %159, align 8, !dbg !8704, !tbaa !8500
  call void @llvm.dbg.value(metadata %"class.kj::ArrayDisposer"* %161, i64 0, metadata !8501, metadata !8316) #10, !dbg !8706
  call void @llvm.dbg.value(metadata i8* %154, i64 0, metadata !8507, metadata !8316) #10, !dbg !8708
  call void @llvm.dbg.value(metadata i64 %156, i64 0, metadata !8508, metadata !8316) #10, !dbg !8709
  call void @llvm.dbg.value(metadata i64 %156, i64 0, metadata !8509, metadata !8316) #10, !dbg !8710
  call void @llvm.dbg.value(metadata i8* %154, i64 0, metadata !8515, metadata !8316) #10, !dbg !8711
  call void @llvm.dbg.value(metadata i64 %156, i64 0, metadata !8525, metadata !8316) #10, !dbg !8713
  call void @llvm.dbg.value(metadata i64 %156, i64 0, metadata !8526, metadata !8316) #10, !dbg !8714
  call void @llvm.dbg.value(metadata %"class.kj::ArrayDisposer"* %161, i64 0, metadata !8527, metadata !8316) #10, !dbg !8715
  %162 = bitcast %"class.kj::ArrayDisposer"* %161 to void (%"class.kj::ArrayDisposer"*, i8*, i64, i64, i64, void (i8*)*)***, !dbg !8716
  %163 = load void (%"class.kj::ArrayDisposer"*, i8*, i64, i64, i64, void (i8*)*)**, void (%"class.kj::ArrayDisposer"*, i8*, i64, i64, i64, void (i8*)*)*** %162, align 8, !dbg !8716, !tbaa !8460
  %164 = load void (%"class.kj::ArrayDisposer"*, i8*, i64, i64, i64, void (i8*)*)*, void (%"class.kj::ArrayDisposer"*, i8*, i64, i64, i64, void (i8*)*)** %163, align 8, !dbg !8716
  invoke void %164(%"class.kj::ArrayDisposer"* nonnull %161, i8* nonnull %154, i64 1, i64 %156, i64 %156, void (i8*)* null)
          to label %168 unwind label %165, !dbg !8716

; <label>:165:                                    ; preds = %158
  %166 = landingpad { i8*, i32 }
          catch i8* null, !dbg !8717
  %167 = extractvalue { i8*, i32 } %166, 0, !dbg !8717
  call void @__clang_call_terminate(i8* %167) #11, !dbg !8717
  unreachable, !dbg !8717

; <label>:168:                                    ; preds = %151, %158
  call void @llvm.lifetime.end.p0i8(i64 56, i8* nonnull %93) #10, !dbg !8662
  br label %171, !dbg !8662

; <label>:169:                                    ; preds = %12
  tail call void @_ZN2kj3strIJRN5capnp12DynamicValue6ReaderEEEENS_6StringEDpOT_(%"class.kj::String"* sret %0, %"class.capnp::DynamicValue::Reader"* nonnull dereferenceable(72) %2), !dbg !8718
  br label %170, !dbg !8720

; <label>:170:                                    ; preds = %169, %129, %52, %11
  ret void, !dbg !8721

; <label>:171:                                    ; preds = %168, %91
  %172 = phi i8* [ %55, %91 ], [ %132, %168 ]
  %173 = phi i32 [ %56, %91 ], [ %133, %168 ]
  %174 = insertvalue { i8*, i32 } undef, i8* %172, 0, !dbg !8535
  %175 = insertvalue { i8*, i32 } %174, i32 %173, 1, !dbg !8535
  resume { i8*, i32 } %175, !dbg !8535
}

; Function Attrs: uwtable
define linkonce_odr void @_ZN2kj3strIJRN5capnp12DynamicValue6ReaderEEEENS_6StringEDpOT_(%"class.kj::String"* noalias sret, %"class.capnp::DynamicValue::Reader"* dereferenceable(72)) local_unnamed_addr #3 comdat personality i8* bitcast (i32 (...)* @__gxx_personality_v0 to i8*) !dbg !8722 {
  %3 = alloca %"class.kj::StringTree", align 8
  tail call void @llvm.dbg.value(metadata %"class.capnp::DynamicValue::Reader"* %1, i64 0, metadata !8726, metadata !8316), !dbg !8731
  %4 = bitcast %"class.kj::StringTree"* %3 to i8*, !dbg !8732
  call void @llvm.lifetime.start.p0i8(i64 56, i8* nonnull %4) #10, !dbg !8732
  tail call void @llvm.dbg.value(metadata %"class.capnp::DynamicValue::Reader"* %1, i64 0, metadata !8733, metadata !8316), !dbg !8740
  call void @_ZN5capnpmlEN2kj1_11StringifierERKNS_12DynamicValue6ReaderE(%"class.kj::StringTree"* nonnull sret %3, %"class.capnp::DynamicValue::Reader"* nonnull dereferenceable(72) %1), !dbg !8742
  call void @llvm.dbg.value(metadata %"class.kj::StringTree"* %3, i64 0, metadata !8743, metadata !8316), !dbg !8753
  call void @llvm.dbg.declare(metadata %"class.kj::String"* %0, metadata !8748, metadata !8316), !dbg !8755
  call void @llvm.dbg.value(metadata %"class.kj::StringTree"* %3, i64 0, metadata !8756, metadata !8316), !dbg !8759
  %5 = getelementptr inbounds %"class.kj::StringTree", %"class.kj::StringTree"* %3, i64 0, i32 0, !dbg !8761
  %6 = load i64, i64* %5, align 8, !dbg !8761, !tbaa !8762, !noalias !8763
  invoke void @_ZN2kj10heapStringEm(%"class.kj::String"* sret %0, i64 %6)
          to label %7 unwind label %68, !dbg !8766

; <label>:7:                                      ; preds = %2
  call void @llvm.dbg.value(metadata %"class.kj::String"* %0, i64 0, metadata !8767, metadata !8316), !dbg !8770
  call void @llvm.dbg.value(metadata %"class.kj::String"* %0, i64 0, metadata !8772, metadata !8475), !dbg !8777
  call void @llvm.dbg.value(metadata i8* null, i64 0, metadata !8775, metadata !8316), !dbg !8779
  %8 = getelementptr inbounds %"class.kj::String", %"class.kj::String"* %0, i64 0, i32 0, i32 1, !dbg !8780
  %9 = load i64, i64* %8, align 8, !dbg !8780, !tbaa !8492, !alias.scope !8763
  %10 = icmp eq i64 %9, 0, !dbg !8781
  br i1 %10, label %14, label %11, !dbg !8782

; <label>:11:                                     ; preds = %7
  call void @llvm.dbg.value(metadata %"class.kj::String"* %0, i64 0, metadata !8783, metadata !8475), !dbg !8786
  %12 = getelementptr inbounds %"class.kj::String", %"class.kj::String"* %0, i64 0, i32 0, i32 0, !dbg !8788
  %13 = load i8*, i8** %12, align 8, !dbg !8788, !tbaa !8488, !alias.scope !8763
  br label %14, !dbg !8782

; <label>:14:                                     ; preds = %11, %7
  %15 = phi i8* [ %13, %11 ], [ null, %7 ], !dbg !8782
  call void @llvm.dbg.value(metadata i8* %15, i64 0, metadata !8789, metadata !8316), !dbg !8797
  call void @llvm.dbg.value(metadata %"class.kj::StringTree"* %3, i64 0, metadata !8794, metadata !8316), !dbg !8799
  invoke void @_ZNK2kj10StringTree9flattenToEPc(%"class.kj::StringTree"* nonnull %3, i8* %15)
          to label %32 unwind label %16, !dbg !8800

; <label>:16:                                     ; preds = %14
  %17 = landingpad { i8*, i32 }
          cleanup, !dbg !8801
  call void @llvm.dbg.value(metadata %"class.kj::String"* %0, i64 0, metadata !8464, metadata !8316) #10, !dbg !8802
  call void @llvm.dbg.value(metadata %"class.kj::String"* %0, i64 0, metadata !8471, metadata !8475) #10, !dbg !8804
  call void @llvm.dbg.value(metadata %"class.kj::String"* %0, i64 0, metadata !8479, metadata !8475) #10, !dbg !8806
  %18 = getelementptr inbounds %"class.kj::String", %"class.kj::String"* %0, i64 0, i32 0, i32 0, !dbg !8808
  %19 = load i8*, i8** %18, align 8, !dbg !8808, !tbaa !8488, !alias.scope !8763
  call void @llvm.dbg.value(metadata i8* %19, i64 0, metadata !8482, metadata !8316) #10, !dbg !8809
  %20 = load i64, i64* %8, align 8, !dbg !8810, !tbaa !8492, !alias.scope !8763
  call void @llvm.dbg.value(metadata i64 %20, i64 0, metadata !8483, metadata !8316) #10, !dbg !8811
  %21 = icmp eq i8* %19, null, !dbg !8812
  br i1 %21, label %70, label %22, !dbg !8813

; <label>:22:                                     ; preds = %16
  %23 = getelementptr inbounds %"class.kj::String", %"class.kj::String"* %0, i64 0, i32 0, i32 2, !dbg !8814
  %24 = bitcast %"class.kj::String"* %0 to i8*, !dbg !8814
  call void @llvm.memset.p0i8.i64(i8* %24, i8 0, i64 16, i32 8, i1 false) #10, !dbg !8815, !alias.scope !8763
  %25 = load %"class.kj::ArrayDisposer"*, %"class.kj::ArrayDisposer"** %23, align 8, !dbg !8814, !tbaa !8500, !alias.scope !8763
  call void @llvm.dbg.value(metadata %"class.kj::ArrayDisposer"* %25, i64 0, metadata !8501, metadata !8316) #10, !dbg !8816
  call void @llvm.dbg.value(metadata i8* %19, i64 0, metadata !8507, metadata !8316) #10, !dbg !8818
  call void @llvm.dbg.value(metadata i64 %20, i64 0, metadata !8508, metadata !8316) #10, !dbg !8819
  call void @llvm.dbg.value(metadata i64 %20, i64 0, metadata !8509, metadata !8316) #10, !dbg !8820
  call void @llvm.dbg.value(metadata i8* %19, i64 0, metadata !8515, metadata !8316) #10, !dbg !8821
  call void @llvm.dbg.value(metadata i64 %20, i64 0, metadata !8525, metadata !8316) #10, !dbg !8823
  call void @llvm.dbg.value(metadata i64 %20, i64 0, metadata !8526, metadata !8316) #10, !dbg !8824
  call void @llvm.dbg.value(metadata %"class.kj::ArrayDisposer"* %25, i64 0, metadata !8527, metadata !8316) #10, !dbg !8825
  %26 = bitcast %"class.kj::ArrayDisposer"* %25 to void (%"class.kj::ArrayDisposer"*, i8*, i64, i64, i64, void (i8*)*)***, !dbg !8826
  %27 = load void (%"class.kj::ArrayDisposer"*, i8*, i64, i64, i64, void (i8*)*)**, void (%"class.kj::ArrayDisposer"*, i8*, i64, i64, i64, void (i8*)*)*** %26, align 8, !dbg !8826, !tbaa !8460
  %28 = load void (%"class.kj::ArrayDisposer"*, i8*, i64, i64, i64, void (i8*)*)*, void (%"class.kj::ArrayDisposer"*, i8*, i64, i64, i64, void (i8*)*)** %27, align 8, !dbg !8826
  invoke void %28(%"class.kj::ArrayDisposer"* nonnull %25, i8* nonnull %19, i64 1, i64 %20, i64 %20, void (i8*)* null)
          to label %70 unwind label %29, !dbg !8826

; <label>:29:                                     ; preds = %22
  %30 = landingpad { i8*, i32 }
          catch i8* null, !dbg !8827
  %31 = extractvalue { i8*, i32 } %30, 0, !dbg !8827
  call void @__clang_call_terminate(i8* %31) #11, !dbg !8827
  unreachable, !dbg !8827

; <label>:32:                                     ; preds = %14
  call void @llvm.dbg.value(metadata %"class.kj::StringTree"* %3, i64 0, metadata !8756, metadata !8316), !dbg !8828
  call void @llvm.dbg.value(metadata %"class.kj::StringTree"* %3, i64 0, metadata !8383, metadata !8316) #10, !dbg !8830
  %33 = getelementptr inbounds %"class.kj::StringTree", %"class.kj::StringTree"* %3, i64 0, i32 2, !dbg !8832
  call void @llvm.dbg.value(metadata %"class.kj::Array.5"* %33, i64 0, metadata !8391, metadata !8316) #10, !dbg !8833
  call void @llvm.dbg.value(metadata %"class.kj::Array.5"* %33, i64 0, metadata !8397, metadata !8316) #10, !dbg !8835
  %34 = getelementptr inbounds %"class.kj::Array.5", %"class.kj::Array.5"* %33, i64 0, i32 0, !dbg !8837
  %35 = load %"struct.kj::StringTree::Branch"*, %"struct.kj::StringTree::Branch"** %34, align 8, !dbg !8837, !tbaa !8406
  call void @llvm.dbg.value(metadata %"struct.kj::StringTree::Branch"* %35, i64 0, metadata !8400, metadata !8316) #10, !dbg !8838
  %36 = getelementptr inbounds %"class.kj::StringTree", %"class.kj::StringTree"* %3, i64 0, i32 2, i32 1, !dbg !8839
  %37 = load i64, i64* %36, align 8, !dbg !8839, !tbaa !8412
  call void @llvm.dbg.value(metadata i64 %37, i64 0, metadata !8401, metadata !8316) #10, !dbg !8840
  %38 = icmp eq %"struct.kj::StringTree::Branch"* %35, null, !dbg !8841
  br i1 %38, label %50, label %39, !dbg !8842

; <label>:39:                                     ; preds = %32
  %40 = getelementptr inbounds %"class.kj::StringTree", %"class.kj::StringTree"* %3, i64 0, i32 2, i32 2, !dbg !8843
  %41 = bitcast %"class.kj::Array.5"* %33 to i8*, !dbg !8843
  call void @llvm.memset.p0i8.i64(i8* %41, i8 0, i64 16, i32 8, i1 false) #10, !dbg !8844
  %42 = load %"class.kj::ArrayDisposer"*, %"class.kj::ArrayDisposer"** %40, align 8, !dbg !8843, !tbaa !8420
  call void @llvm.dbg.value(metadata %"class.kj::ArrayDisposer"* %42, i64 0, metadata !8421, metadata !8316) #10, !dbg !8845
  call void @llvm.dbg.value(metadata %"struct.kj::StringTree::Branch"* %35, i64 0, metadata !8430, metadata !8316) #10, !dbg !8847
  call void @llvm.dbg.value(metadata i64 %37, i64 0, metadata !8431, metadata !8316) #10, !dbg !8848
  call void @llvm.dbg.value(metadata i64 %37, i64 0, metadata !8432, metadata !8316) #10, !dbg !8849
  call void @llvm.dbg.value(metadata %"struct.kj::StringTree::Branch"* %35, i64 0, metadata !8438, metadata !8316) #10, !dbg !8850
  call void @llvm.dbg.value(metadata i64 %37, i64 0, metadata !8451, metadata !8316) #10, !dbg !8852
  call void @llvm.dbg.value(metadata i64 %37, i64 0, metadata !8452, metadata !8316) #10, !dbg !8853
  call void @llvm.dbg.value(metadata %"class.kj::ArrayDisposer"* %42, i64 0, metadata !8453, metadata !8316) #10, !dbg !8854
  %43 = bitcast %"class.kj::ArrayDisposer"* %42 to void (%"class.kj::ArrayDisposer"*, i8*, i64, i64, i64, void (i8*)*)***, !dbg !8855
  %44 = load void (%"class.kj::ArrayDisposer"*, i8*, i64, i64, i64, void (i8*)*)**, void (%"class.kj::ArrayDisposer"*, i8*, i64, i64, i64, void (i8*)*)*** %43, align 8, !dbg !8855, !tbaa !8460
  %45 = load void (%"class.kj::ArrayDisposer"*, i8*, i64, i64, i64, void (i8*)*)*, void (%"class.kj::ArrayDisposer"*, i8*, i64, i64, i64, void (i8*)*)** %44, align 8, !dbg !8855
  %46 = bitcast %"struct.kj::StringTree::Branch"* %35 to i8*, !dbg !8856
  invoke void %45(%"class.kj::ArrayDisposer"* nonnull %42, i8* %46, i64 64, i64 %37, i64 %37, void (i8*)* nonnull @_ZN2kj13ArrayDisposer8Dispose_INS_10StringTree6BranchELb0EE8destructEPv)
          to label %50 unwind label %47, !dbg !8855

; <label>:47:                                     ; preds = %39
  %48 = landingpad { i8*, i32 }
          catch i8* null, !dbg !8857
  %49 = extractvalue { i8*, i32 } %48, 0, !dbg !8857
  call void @__clang_call_terminate(i8* %49) #11, !dbg !8857
  unreachable, !dbg !8857

; <label>:50:                                     ; preds = %39, %32
  %51 = getelementptr inbounds %"class.kj::StringTree", %"class.kj::StringTree"* %3, i64 0, i32 1, !dbg !8832
  call void @llvm.dbg.value(metadata %"class.kj::String"* %51, i64 0, metadata !8464, metadata !8316) #10, !dbg !8858
  call void @llvm.dbg.value(metadata %"class.kj::String"* %51, i64 0, metadata !8471, metadata !8475) #10, !dbg !8860
  call void @llvm.dbg.value(metadata %"class.kj::String"* %51, i64 0, metadata !8479, metadata !8475) #10, !dbg !8862
  %52 = getelementptr inbounds %"class.kj::String", %"class.kj::String"* %51, i64 0, i32 0, i32 0, !dbg !8864
  %53 = load i8*, i8** %52, align 8, !dbg !8864, !tbaa !8488
  call void @llvm.dbg.value(metadata i8* %53, i64 0, metadata !8482, metadata !8316) #10, !dbg !8865
  %54 = getelementptr inbounds %"class.kj::StringTree", %"class.kj::StringTree"* %3, i64 0, i32 1, i32 0, i32 1, !dbg !8866
  %55 = load i64, i64* %54, align 8, !dbg !8866, !tbaa !8492
  call void @llvm.dbg.value(metadata i64 %55, i64 0, metadata !8483, metadata !8316) #10, !dbg !8867
  %56 = icmp eq i8* %53, null, !dbg !8868
  br i1 %56, label %67, label %57, !dbg !8869

; <label>:57:                                     ; preds = %50
  %58 = getelementptr inbounds %"class.kj::StringTree", %"class.kj::StringTree"* %3, i64 0, i32 1, i32 0, i32 2, !dbg !8870
  %59 = bitcast %"class.kj::String"* %51 to i8*, !dbg !8870
  call void @llvm.memset.p0i8.i64(i8* %59, i8 0, i64 16, i32 8, i1 false) #10, !dbg !8871
  %60 = load %"class.kj::ArrayDisposer"*, %"class.kj::ArrayDisposer"** %58, align 8, !dbg !8870, !tbaa !8500
  call void @llvm.dbg.value(metadata %"class.kj::ArrayDisposer"* %60, i64 0, metadata !8501, metadata !8316) #10, !dbg !8872
  call void @llvm.dbg.value(metadata i8* %53, i64 0, metadata !8507, metadata !8316) #10, !dbg !8874
  call void @llvm.dbg.value(metadata i64 %55, i64 0, metadata !8508, metadata !8316) #10, !dbg !8875
  call void @llvm.dbg.value(metadata i64 %55, i64 0, metadata !8509, metadata !8316) #10, !dbg !8876
  call void @llvm.dbg.value(metadata i8* %53, i64 0, metadata !8515, metadata !8316) #10, !dbg !8877
  call void @llvm.dbg.value(metadata i64 %55, i64 0, metadata !8525, metadata !8316) #10, !dbg !8879
  call void @llvm.dbg.value(metadata i64 %55, i64 0, metadata !8526, metadata !8316) #10, !dbg !8880
  call void @llvm.dbg.value(metadata %"class.kj::ArrayDisposer"* %60, i64 0, metadata !8527, metadata !8316) #10, !dbg !8881
  %61 = bitcast %"class.kj::ArrayDisposer"* %60 to void (%"class.kj::ArrayDisposer"*, i8*, i64, i64, i64, void (i8*)*)***, !dbg !8882
  %62 = load void (%"class.kj::ArrayDisposer"*, i8*, i64, i64, i64, void (i8*)*)**, void (%"class.kj::ArrayDisposer"*, i8*, i64, i64, i64, void (i8*)*)*** %61, align 8, !dbg !8882, !tbaa !8460
  %63 = load void (%"class.kj::ArrayDisposer"*, i8*, i64, i64, i64, void (i8*)*)*, void (%"class.kj::ArrayDisposer"*, i8*, i64, i64, i64, void (i8*)*)** %62, align 8, !dbg !8882
  invoke void %63(%"class.kj::ArrayDisposer"* nonnull %60, i8* nonnull %53, i64 1, i64 %55, i64 %55, void (i8*)* null)
          to label %67 unwind label %64, !dbg !8882

; <label>:64:                                     ; preds = %57
  %65 = landingpad { i8*, i32 }
          catch i8* null, !dbg !8883
  %66 = extractvalue { i8*, i32 } %65, 0, !dbg !8883
  call void @__clang_call_terminate(i8* %66) #11, !dbg !8883
  unreachable, !dbg !8883

; <label>:67:                                     ; preds = %50, %57
  call void @llvm.lifetime.end.p0i8(i64 56, i8* nonnull %4) #10, !dbg !8884
  ret void, !dbg !8884

; <label>:68:                                     ; preds = %2
  %69 = landingpad { i8*, i32 }
          cleanup, !dbg !8885
  br label %70, !dbg !8886

; <label>:70:                                     ; preds = %16, %22, %68
  %71 = phi { i8*, i32 } [ %69, %68 ], [ %17, %22 ], [ %17, %16 ]
  call void @llvm.dbg.value(metadata %"class.kj::StringTree"* %3, i64 0, metadata !8383, metadata !8316) #10, !dbg !8886
  %72 = getelementptr inbounds %"class.kj::StringTree", %"class.kj::StringTree"* %3, i64 0, i32 2, !dbg !8888
  call void @llvm.dbg.value(metadata %"class.kj::Array.5"* %72, i64 0, metadata !8391, metadata !8316) #10, !dbg !8889
  call void @llvm.dbg.value(metadata %"class.kj::Array.5"* %72, i64 0, metadata !8397, metadata !8316) #10, !dbg !8891
  %73 = getelementptr inbounds %"class.kj::Array.5", %"class.kj::Array.5"* %72, i64 0, i32 0, !dbg !8893
  %74 = load %"struct.kj::StringTree::Branch"*, %"struct.kj::StringTree::Branch"** %73, align 8, !dbg !8893, !tbaa !8406
  call void @llvm.dbg.value(metadata %"struct.kj::StringTree::Branch"* %74, i64 0, metadata !8400, metadata !8316) #10, !dbg !8894
  %75 = getelementptr inbounds %"class.kj::StringTree", %"class.kj::StringTree"* %3, i64 0, i32 2, i32 1, !dbg !8895
  %76 = load i64, i64* %75, align 8, !dbg !8895, !tbaa !8412
  call void @llvm.dbg.value(metadata i64 %76, i64 0, metadata !8401, metadata !8316) #10, !dbg !8896
  %77 = icmp eq %"struct.kj::StringTree::Branch"* %74, null, !dbg !8897
  br i1 %77, label %89, label %78, !dbg !8898

; <label>:78:                                     ; preds = %70
  %79 = getelementptr inbounds %"class.kj::StringTree", %"class.kj::StringTree"* %3, i64 0, i32 2, i32 2, !dbg !8899
  %80 = bitcast %"class.kj::Array.5"* %72 to i8*, !dbg !8899
  call void @llvm.memset.p0i8.i64(i8* %80, i8 0, i64 16, i32 8, i1 false) #10, !dbg !8900
  %81 = load %"class.kj::ArrayDisposer"*, %"class.kj::ArrayDisposer"** %79, align 8, !dbg !8899, !tbaa !8420
  call void @llvm.dbg.value(metadata %"class.kj::ArrayDisposer"* %81, i64 0, metadata !8421, metadata !8316) #10, !dbg !8901
  call void @llvm.dbg.value(metadata %"struct.kj::StringTree::Branch"* %74, i64 0, metadata !8430, metadata !8316) #10, !dbg !8903
  call void @llvm.dbg.value(metadata i64 %76, i64 0, metadata !8431, metadata !8316) #10, !dbg !8904
  call void @llvm.dbg.value(metadata i64 %76, i64 0, metadata !8432, metadata !8316) #10, !dbg !8905
  call void @llvm.dbg.value(metadata %"struct.kj::StringTree::Branch"* %74, i64 0, metadata !8438, metadata !8316) #10, !dbg !8906
  call void @llvm.dbg.value(metadata i64 %76, i64 0, metadata !8451, metadata !8316) #10, !dbg !8908
  call void @llvm.dbg.value(metadata i64 %76, i64 0, metadata !8452, metadata !8316) #10, !dbg !8909
  call void @llvm.dbg.value(metadata %"class.kj::ArrayDisposer"* %81, i64 0, metadata !8453, metadata !8316) #10, !dbg !8910
  %82 = bitcast %"class.kj::ArrayDisposer"* %81 to void (%"class.kj::ArrayDisposer"*, i8*, i64, i64, i64, void (i8*)*)***, !dbg !8911
  %83 = load void (%"class.kj::ArrayDisposer"*, i8*, i64, i64, i64, void (i8*)*)**, void (%"class.kj::ArrayDisposer"*, i8*, i64, i64, i64, void (i8*)*)*** %82, align 8, !dbg !8911, !tbaa !8460
  %84 = load void (%"class.kj::ArrayDisposer"*, i8*, i64, i64, i64, void (i8*)*)*, void (%"class.kj::ArrayDisposer"*, i8*, i64, i64, i64, void (i8*)*)** %83, align 8, !dbg !8911
  %85 = bitcast %"struct.kj::StringTree::Branch"* %74 to i8*, !dbg !8912
  invoke void %84(%"class.kj::ArrayDisposer"* nonnull %81, i8* %85, i64 64, i64 %76, i64 %76, void (i8*)* nonnull @_ZN2kj13ArrayDisposer8Dispose_INS_10StringTree6BranchELb0EE8destructEPv)
          to label %89 unwind label %86, !dbg !8911

; <label>:86:                                     ; preds = %78
  %87 = landingpad { i8*, i32 }
          catch i8* null, !dbg !8913
  %88 = extractvalue { i8*, i32 } %87, 0, !dbg !8913
  call void @__clang_call_terminate(i8* %88) #11, !dbg !8913
  unreachable, !dbg !8913

; <label>:89:                                     ; preds = %78, %70
  %90 = getelementptr inbounds %"class.kj::StringTree", %"class.kj::StringTree"* %3, i64 0, i32 1, !dbg !8888
  call void @llvm.dbg.value(metadata %"class.kj::String"* %90, i64 0, metadata !8464, metadata !8316) #10, !dbg !8914
  call void @llvm.dbg.value(metadata %"class.kj::String"* %90, i64 0, metadata !8471, metadata !8475) #10, !dbg !8916
  call void @llvm.dbg.value(metadata %"class.kj::String"* %90, i64 0, metadata !8479, metadata !8475) #10, !dbg !8918
  %91 = getelementptr inbounds %"class.kj::String", %"class.kj::String"* %90, i64 0, i32 0, i32 0, !dbg !8920
  %92 = load i8*, i8** %91, align 8, !dbg !8920, !tbaa !8488
  call void @llvm.dbg.value(metadata i8* %92, i64 0, metadata !8482, metadata !8316) #10, !dbg !8921
  %93 = getelementptr inbounds %"class.kj::StringTree", %"class.kj::StringTree"* %3, i64 0, i32 1, i32 0, i32 1, !dbg !8922
  %94 = load i64, i64* %93, align 8, !dbg !8922, !tbaa !8492
  call void @llvm.dbg.value(metadata i64 %94, i64 0, metadata !8483, metadata !8316) #10, !dbg !8923
  %95 = icmp eq i8* %92, null, !dbg !8924
  br i1 %95, label %106, label %96, !dbg !8925

; <label>:96:                                     ; preds = %89
  %97 = getelementptr inbounds %"class.kj::StringTree", %"class.kj::StringTree"* %3, i64 0, i32 1, i32 0, i32 2, !dbg !8926
  %98 = bitcast %"class.kj::String"* %90 to i8*, !dbg !8926
  call void @llvm.memset.p0i8.i64(i8* %98, i8 0, i64 16, i32 8, i1 false) #10, !dbg !8927
  %99 = load %"class.kj::ArrayDisposer"*, %"class.kj::ArrayDisposer"** %97, align 8, !dbg !8926, !tbaa !8500
  call void @llvm.dbg.value(metadata %"class.kj::ArrayDisposer"* %99, i64 0, metadata !8501, metadata !8316) #10, !dbg !8928
  call void @llvm.dbg.value(metadata i8* %92, i64 0, metadata !8507, metadata !8316) #10, !dbg !8930
  call void @llvm.dbg.value(metadata i64 %94, i64 0, metadata !8508, metadata !8316) #10, !dbg !8931
  call void @llvm.dbg.value(metadata i64 %94, i64 0, metadata !8509, metadata !8316) #10, !dbg !8932
  call void @llvm.dbg.value(metadata i8* %92, i64 0, metadata !8515, metadata !8316) #10, !dbg !8933
  call void @llvm.dbg.value(metadata i64 %94, i64 0, metadata !8525, metadata !8316) #10, !dbg !8935
  call void @llvm.dbg.value(metadata i64 %94, i64 0, metadata !8526, metadata !8316) #10, !dbg !8936
  call void @llvm.dbg.value(metadata %"class.kj::ArrayDisposer"* %99, i64 0, metadata !8527, metadata !8316) #10, !dbg !8937
  %100 = bitcast %"class.kj::ArrayDisposer"* %99 to void (%"class.kj::ArrayDisposer"*, i8*, i64, i64, i64, void (i8*)*)***, !dbg !8938
  %101 = load void (%"class.kj::ArrayDisposer"*, i8*, i64, i64, i64, void (i8*)*)**, void (%"class.kj::ArrayDisposer"*, i8*, i64, i64, i64, void (i8*)*)*** %100, align 8, !dbg !8938, !tbaa !8460
  %102 = load void (%"class.kj::ArrayDisposer"*, i8*, i64, i64, i64, void (i8*)*)*, void (%"class.kj::ArrayDisposer"*, i8*, i64, i64, i64, void (i8*)*)** %101, align 8, !dbg !8938
  invoke void %102(%"class.kj::ArrayDisposer"* nonnull %99, i8* nonnull %92, i64 1, i64 %94, i64 %94, void (i8*)* null)
          to label %106 unwind label %103, !dbg !8938

; <label>:103:                                    ; preds = %96
  %104 = landingpad { i8*, i32 }
          catch i8* null, !dbg !8939
  %105 = extractvalue { i8*, i32 } %104, 0, !dbg !8939
  call void @__clang_call_terminate(i8* %105) #11, !dbg !8939
  unreachable, !dbg !8939

; <label>:106:                                    ; preds = %89, %96
  call void @llvm.lifetime.end.p0i8(i64 56, i8* nonnull %4) #10, !dbg !8884
  resume { i8*, i32 } %71, !dbg !8884
}

; Function Attrs: argmemonly nounwind
declare void @llvm.lifetime.start.p0i8(i64, i8* nocapture) #4

declare void @_ZN5capnp11prettyPrintENS_13DynamicStruct6ReaderE(%"class.kj::StringTree"* sret, %"class.capnp::DynamicStruct::Reader"* byval align 8) local_unnamed_addr #5

declare void @_ZNK2kj10StringTree7flattenEv(%"class.kj::String"* sret, %"class.kj::StringTree"*) local_unnamed_addr #5

declare i32 @__gxx_personality_v0(...)

; Function Attrs: argmemonly nounwind
declare void @llvm.lifetime.end.p0i8(i64, i8* nocapture) #4

declare void @_ZN5capnp11prettyPrintENS_11DynamicList6ReaderE(%"class.kj::StringTree"* sret, %"class.capnp::DynamicList::Reader"* byval align 8) local_unnamed_addr #5

; Function Attrs: uwtable
define void @_ZNK5capnp9TextCodec6decodeEN2kj9StringPtrENS_13DynamicStruct7BuilderE(%"class.capnp::TextCodec"* nocapture readnone, i8*, i64, %"class.capnp::DynamicStruct::Builder"* byval nocapture readonly align 8) local_unnamed_addr #3 align 2 personality i32 (...)* @__gxx_personality_v0 !dbg !8940 {
  %5 = alloca %"class.capnp::_::StructReader", align 16
  %6 = alloca %"class.capnp::_::StructBuilder", align 8
  %7 = alloca %"class.capnp::DynamicStruct::Builder", align 8
  %8 = alloca %"class.capnp::_::ListReader", align 8
  %9 = alloca %"class.capnp::_::PointerReader", align 16
  %10 = alloca %"class.kj::_::Debug::Fault", align 8
  %11 = alloca %"class.(anonymous namespace)::ThrowingErrorReporter", align 8
  %12 = alloca %"class.(anonymous namespace)::ExternalResolver", align 8
  %13 = alloca %"class.capnp::compiler::ValueTranslator", align 8
  %14 = alloca %"class.capnp::DynamicStruct::Builder", align 8
  %15 = alloca %"class.capnp::List<capnp::compiler::Expression::Param, capnp::Kind::STRUCT>::Reader", align 8
  %16 = alloca %"class.capnp::_::StructReader", align 8
  %17 = alloca { %"class.capnp::List<capnp::compiler::Token, capnp::Kind::STRUCT>::Reader"*, i32 }, align 8
  %18 = alloca { %"class.capnp::List<capnp::compiler::Token, capnp::Kind::STRUCT>::Reader"*, i32 }, align 8
  %19 = alloca %"class.capnp::_::ListReader", align 8
  %20 = alloca %"class.capnp::_::PointerReader", align 16
  %21 = alloca %"class.capnp::_::StructReader", align 16
  %22 = alloca %"class.capnp::_::StructBuilder", align 8
  %23 = alloca %"class.capnp::_::PointerBuilder", align 8
  %24 = alloca %"class.capnp::AnyPointer::Builder", align 8
  %25 = alloca %"class.(anonymous namespace)::ThrowingErrorReporter", align 8
  %26 = alloca %"class.capnp::MallocMessageBuilder", align 8
  %27 = alloca %"class.capnp::compiler::LexedTokens::Builder", align 8
  %28 = alloca %"class.capnp::compiler::CapnpParser", align 8
  %29 = alloca %"class.capnp::List<capnp::compiler::Token, capnp::Kind::STRUCT>::Reader", align 8
  %30 = alloca %"class.kj::parse::IteratorInput", align 8
  %31 = alloca %"class.kj::_::NullableValue", align 8
  %32 = alloca %"class.kj::Maybe.15", align 8
  %33 = alloca %"class.kj::_::Debug::Fault", align 8
  %34 = alloca %"class.kj::_::Debug::Fault", align 8
  %35 = alloca %"class.kj::_::Debug::Fault", align 8
  tail call void @llvm.dbg.value(metadata i8* %1, i64 0, metadata !8943, metadata !8945), !dbg !8946
  tail call void @llvm.dbg.value(metadata i64 %2, i64 0, metadata !8943, metadata !8947), !dbg !8946
  tail call void @llvm.dbg.value(metadata %"class.capnp::TextCodec"* %0, i64 0, metadata !8942, metadata !8316), !dbg !8948
  tail call void @llvm.dbg.declare(metadata %"class.kj::StringPtr"* undef, metadata !8943, metadata !8316), !dbg !8946
  tail call void @llvm.dbg.declare(metadata %"class.capnp::DynamicStruct::Builder"* %3, metadata !8944, metadata !8316), !dbg !8949
  tail call void @llvm.dbg.declare(metadata %"class.capnp::compiler::Expression::Reader"* undef, metadata !8950, metadata !8316), !dbg !9581
  %36 = bitcast %"class.(anonymous namespace)::ThrowingErrorReporter"* %25 to i8*, !dbg !11167
  call void @llvm.lifetime.start.p0i8(i64 8, i8* nonnull %36) #10, !dbg !11167
  tail call void @llvm.dbg.value(metadata %"class.(anonymous namespace)::ThrowingErrorReporter"* %25, i64 0, metadata !9593, metadata !8316), !dbg !11168
  tail call void @llvm.dbg.value(metadata %"class.(anonymous namespace)::ThrowingErrorReporter"* %25, i64 0, metadata !11169, metadata !8316), !dbg !11176
  %37 = getelementptr inbounds %"class.(anonymous namespace)::ThrowingErrorReporter", %"class.(anonymous namespace)::ThrowingErrorReporter"* %25, i64 0, i32 0, i32 0, !dbg !11178
  store i32 (...)** bitcast (i8** getelementptr inbounds ({ [4 x i8*] }, { [4 x i8*] }* @_ZTVN12_GLOBAL__N_121ThrowingErrorReporterE, i64 0, inrange i32 0, i64 2) to i32 (...)**), i32 (...)*** %37, align 8, !dbg !11178, !tbaa !8460
  %38 = bitcast %"class.capnp::MallocMessageBuilder"* %26 to i8*, !dbg !11179
  call void @llvm.lifetime.start.p0i8(i64 224, i8* nonnull %38) #10, !dbg !11179
  tail call void @llvm.dbg.value(metadata %"class.capnp::MallocMessageBuilder"* %26, i64 0, metadata !9594, metadata !8316), !dbg !11180
  call void @_ZN5capnp20MallocMessageBuilderC1EjNS_18AllocationStrategyE(%"class.capnp::MallocMessageBuilder"* nonnull %26, i32 1024, i8 zeroext 1), !dbg !11180
  %39 = bitcast %"class.capnp::compiler::LexedTokens::Builder"* %27 to i8*, !dbg !11181
  call void @llvm.lifetime.start.p0i8(i64 40, i8* nonnull %39) #10, !dbg !11181
  %40 = bitcast %"class.capnp::MallocMessageBuilder"* %26 to %"class.capnp::MessageBuilder"*, !dbg !11182
  call void @llvm.dbg.value(metadata %"class.capnp::MessageBuilder"* %40, i64 0, metadata !11183, metadata !8316), !dbg !11194
  %41 = bitcast %"class.capnp::AnyPointer::Builder"* %24 to i8*, !dbg !11196
  call void @llvm.lifetime.start.p0i8(i64 24, i8* nonnull %41) #10, !dbg !11196, !noalias !11197
  invoke void @_ZN5capnp14MessageBuilder15getRootInternalEv(%"class.capnp::AnyPointer::Builder"* nonnull sret %24, %"class.capnp::MessageBuilder"* nonnull %40)
          to label %42 unwind label %120, !dbg !11196

; <label>:42:                                     ; preds = %4
  call void @llvm.dbg.value(metadata %"class.capnp::AnyPointer::Builder"* %24, i64 0, metadata !11200, metadata !8316), !dbg !11213
  %43 = bitcast %"class.capnp::_::PointerBuilder"* %23 to i8*
  call void @llvm.lifetime.start.p0i8(i64 24, i8* nonnull %43), !noalias !11215
  %44 = bitcast %"class.capnp::_::StructBuilder"* %22 to i8*
  call void @llvm.lifetime.start.p0i8(i64 40, i8* nonnull %44), !noalias !11215
  call void @llvm.memcpy.p0i8.p0i8.i64(i8* nonnull %43, i8* nonnull %41, i64 24, i32 8, i1 false), !noalias !11215
  call void @llvm.dbg.value(metadata %"class.capnp::_::PointerBuilder"* %23, i64 0, metadata !11218, metadata !8316), !dbg !11255
  invoke void @_ZN5capnp1_14PointerBuilder10initStructENS0_10StructSizeE(%"class.capnp::_::StructBuilder"* nonnull sret %22, %"class.capnp::_::PointerBuilder"* nonnull %23, i32 65536)
          to label %45 unwind label %120, !dbg !11257

; <label>:45:                                     ; preds = %42
  call void @llvm.memcpy.p0i8.p0i8.i64(i8* nonnull %39, i8* nonnull %44, i64 40, i32 8, i1 false) #10, !dbg !11258
  call void @llvm.dbg.value(metadata %"class.capnp::compiler::LexedTokens::Builder"* %27, i64 0, metadata !11261, metadata !8316) #10, !dbg !11258
  call void @llvm.lifetime.end.p0i8(i64 24, i8* nonnull %43), !dbg !11265, !noalias !11215
  call void @llvm.lifetime.end.p0i8(i64 40, i8* nonnull %44), !dbg !11265, !noalias !11215
  call void @llvm.lifetime.end.p0i8(i64 24, i8* nonnull %41) #10, !dbg !11266, !noalias !11197
  call void @llvm.dbg.value(metadata %"class.kj::StringPtr"* undef, i64 0, metadata !11267, metadata !8316), !dbg !11271
  %46 = add i64 %2, -1, !dbg !11273
  %47 = getelementptr inbounds %"class.(anonymous namespace)::ThrowingErrorReporter", %"class.(anonymous namespace)::ThrowingErrorReporter"* %25, i64 0, i32 0, !dbg !11274
  %48 = invoke zeroext i1 @_ZN5capnp8compiler3lexEN2kj8ArrayPtrIKcEENS0_11LexedTokens7BuilderERNS0_13ErrorReporterE(i8* %1, i64 %46, %"class.capnp::compiler::LexedTokens::Builder"* byval nonnull align 8 %27, %"class.capnp::compiler::ErrorReporter"* nonnull dereferenceable(8) %47)
          to label %49 unwind label %120, !dbg !11275

; <label>:49:                                     ; preds = %45
  %50 = bitcast %"class.capnp::compiler::CapnpParser"* %28 to i8*, !dbg !11276
  call void @llvm.lifetime.start.p0i8(i64 408, i8* nonnull %50) #10, !dbg !11276
  %51 = invoke { %"class.capnp::_::BuilderArena"*, %"class.capnp::_::CapTableBuilder"* } @_ZN5capnp14MessageBuilder12getOrphanageEv(%"class.capnp::MessageBuilder"* nonnull %40)
          to label %52 unwind label %124, !dbg !11277

; <label>:52:                                     ; preds = %49
  %53 = extractvalue { %"class.capnp::_::BuilderArena"*, %"class.capnp::_::CapTableBuilder"* } %51, 0, !dbg !11277
  %54 = extractvalue { %"class.capnp::_::BuilderArena"*, %"class.capnp::_::CapTableBuilder"* } %51, 1, !dbg !11277
  invoke void @_ZN5capnp8compiler11CapnpParserC1ENS_9OrphanageERNS0_13ErrorReporterE(%"class.capnp::compiler::CapnpParser"* nonnull %28, %"class.capnp::_::BuilderArena"* %53, %"class.capnp::_::CapTableBuilder"* %54, %"class.capnp::compiler::ErrorReporter"* nonnull dereferenceable(8) %47)
          to label %55 unwind label %124, !dbg !11278

; <label>:55:                                     ; preds = %52
  %56 = bitcast %"class.capnp::List<capnp::compiler::Token, capnp::Kind::STRUCT>::Reader"* %29 to i8*, !dbg !11279
  call void @llvm.lifetime.start.p0i8(i64 48, i8* nonnull %56) #10, !dbg !11279
  call void @llvm.dbg.value(metadata %"class.capnp::compiler::LexedTokens::Builder"* %27, i64 0, metadata !11280, metadata !8316), !dbg !11284
  %57 = bitcast %"class.capnp::_::StructReader"* %21 to i8*, !dbg !11286
  call void @llvm.lifetime.start.p0i8(i64 48, i8* nonnull %57), !dbg !11286, !noalias !11291
  call void @llvm.dbg.value(metadata %"class.capnp::compiler::LexedTokens::Builder"* %27, i64 0, metadata !11289, metadata !8316), !dbg !11286
  %58 = getelementptr inbounds %"class.capnp::compiler::LexedTokens::Builder", %"class.capnp::compiler::LexedTokens::Builder"* %27, i64 0, i32 0, !dbg !11294
  invoke void @_ZNK5capnp1_13StructBuilder8asReaderEv(%"class.capnp::_::StructReader"* nonnull sret %21, %"class.capnp::_::StructBuilder"* nonnull %58)
          to label %59 unwind label %128, !dbg !11295

; <label>:59:                                     ; preds = %55
  %60 = bitcast %"class.capnp::_::StructReader"* %21 to <2 x i64>*, !dbg !11296
  %61 = load <2 x i64>, <2 x i64>* %60, align 16, !dbg !11296
  %62 = getelementptr inbounds %"class.capnp::_::StructReader", %"class.capnp::_::StructReader"* %21, i64 0, i32 3, !dbg !11296
  %63 = bitcast %"struct.capnp::_::WirePointer"** %62 to %"class.capnp::word"**, !dbg !11296
  %64 = load %"class.capnp::word"*, %"class.capnp::word"** %63, align 8, !dbg !11296
  %65 = getelementptr inbounds %"class.capnp::_::StructReader", %"class.capnp::_::StructReader"* %21, i64 0, i32 5, !dbg !11296
  %66 = load i16, i16* %65, align 4, !dbg !11296
  %67 = getelementptr inbounds %"class.capnp::_::StructReader", %"class.capnp::_::StructReader"* %21, i64 0, i32 7, !dbg !11296
  %68 = load i32, i32* %67, align 8, !dbg !11296
  call void @llvm.dbg.value(metadata %"class.capnp::compiler::LexedTokens::Reader"* undef, i64 0, metadata !11299, metadata !8316) #10, !dbg !11296
  call void @llvm.lifetime.end.p0i8(i64 48, i8* nonnull %57), !dbg !11303, !noalias !11291
  call void @llvm.dbg.value(metadata %"class.capnp::compiler::LexedTokens::Reader"* undef, i64 0, metadata !11304, metadata !8316), !dbg !11308
  call void @llvm.dbg.value(metadata %"class.capnp::compiler::LexedTokens::Reader"* undef, i64 0, metadata !11310, metadata !8475), !dbg !11315
  call void @llvm.dbg.value(metadata i32 0, i64 0, metadata !11313, metadata !8316), !dbg !11317
  %69 = icmp eq i16 %66, 0, !dbg !11318
  %70 = select i1 %69, %"class.capnp::word"* null, %"class.capnp::word"* %64, !dbg !11320
  %71 = insertelement <2 x i1> undef, i1 %69, i32 0
  %72 = shufflevector <2 x i1> %71, <2 x i1> undef, <2 x i32> zeroinitializer, !dbg !11320
  %73 = select <2 x i1> %72, <2 x i64> zeroinitializer, <2 x i64> %61, !dbg !11320
  %74 = select i1 %69, i32 2147483647, i32 %68, !dbg !11320
  %75 = bitcast %"class.capnp::_::PointerReader"* %20 to i8*
  call void @llvm.lifetime.start.p0i8(i64 32, i8* nonnull %75), !noalias !11321
  %76 = bitcast %"class.capnp::_::ListReader"* %19 to i8*
  call void @llvm.lifetime.start.p0i8(i64 48, i8* nonnull %76), !noalias !11321
  %77 = bitcast %"class.capnp::_::PointerReader"* %20 to <2 x i64>*
  store <2 x i64> %73, <2 x i64>* %77, align 16, !noalias !11321
  %78 = getelementptr inbounds %"class.capnp::_::PointerReader", %"class.capnp::_::PointerReader"* %20, i64 0, i32 2
  %79 = bitcast %"struct.capnp::_::WirePointer"** %78 to %"class.capnp::word"**
  store %"class.capnp::word"* %70, %"class.capnp::word"** %79, align 16, !noalias !11321
  %80 = getelementptr inbounds %"class.capnp::_::PointerReader", %"class.capnp::_::PointerReader"* %20, i64 0, i32 3
  store i32 %74, i32* %80, align 8, !noalias !11321
  call void @llvm.dbg.value(metadata %"class.capnp::word"* null, i64 0, metadata !11324, metadata !8316), !dbg !11360
  call void @llvm.dbg.value(metadata %"class.capnp::_::PointerReader"* %20, i64 0, metadata !11362, metadata !8316), !dbg !11366
  call void @llvm.dbg.value(metadata %"class.capnp::word"* null, i64 0, metadata !11365, metadata !8316), !dbg !11368
  call void @llvm.dbg.value(metadata %"class.capnp::_::PointerReader"* %20, i64 0, metadata !11359, metadata !8316), !dbg !11369
  invoke void @_ZNK5capnp1_13PointerReader7getListENS_11ElementSizeEPKNS_4wordE(%"class.capnp::_::ListReader"* nonnull sret %19, %"class.capnp::_::PointerReader"* nonnull %20, i8 zeroext 7, %"class.capnp::word"* null)
          to label %81 unwind label %128, !dbg !11370

; <label>:81:                                     ; preds = %59
  call void @llvm.memcpy.p0i8.p0i8.i64(i8* nonnull %56, i8* nonnull %76, i64 48, i32 8, i1 false) #10, !dbg !11371
  call void @llvm.dbg.value(metadata %"class.capnp::List<capnp::compiler::Token, capnp::Kind::STRUCT>::Reader"* %29, i64 0, metadata !11374, metadata !8316) #10, !dbg !11371
  call void @llvm.lifetime.end.p0i8(i64 32, i8* nonnull %75), !dbg !11378, !noalias !11321
  call void @llvm.lifetime.end.p0i8(i64 48, i8* nonnull %76), !dbg !11378, !noalias !11321
  %82 = bitcast %"class.kj::parse::IteratorInput"* %30 to i8*, !dbg !11379
  call void @llvm.lifetime.start.p0i8(i64 56, i8* nonnull %82) #10, !dbg !11379
  call void @llvm.dbg.value(metadata %"class.capnp::List<capnp::compiler::Token, capnp::Kind::STRUCT>::Reader"* %29, i64 0, metadata !11380, metadata !8316), !dbg !11383
  call void @llvm.dbg.value(metadata %"class.capnp::List<capnp::compiler::Token, capnp::Kind::STRUCT>::Reader"* %29, i64 0, metadata !11385, metadata !8316), !dbg !11388
  call void @llvm.dbg.value(metadata %"class.capnp::List<capnp::compiler::Token, capnp::Kind::STRUCT>::Reader"* %29, i64 0, metadata !11390, metadata !8475), !dbg !11393
  %83 = getelementptr inbounds %"class.capnp::List<capnp::compiler::Token, capnp::Kind::STRUCT>::Reader", %"class.capnp::List<capnp::compiler::Token, capnp::Kind::STRUCT>::Reader"* %29, i64 0, i32 0, i32 3, !dbg !11395
  %84 = load i32, i32* %83, align 8, !dbg !11395, !tbaa !11396
  call void @llvm.dbg.value(metadata %"class.kj::parse::IteratorInput"* %30, i64 0, metadata !11149, metadata !8316), !dbg !11401
  call void @llvm.dbg.value(metadata %"class.capnp::List<capnp::compiler::Token, capnp::Kind::STRUCT>::Reader"* %29, i64 0, metadata !11402, metadata !8945), !dbg !11407
  call void @llvm.dbg.value(metadata i32 0, i64 0, metadata !11402, metadata !11409), !dbg !11407
  call void @llvm.dbg.value(metadata %"class.capnp::List<capnp::compiler::Token, capnp::Kind::STRUCT>::Reader"* %29, i64 0, metadata !11406, metadata !8945), !dbg !11410
  call void @llvm.dbg.value(metadata i32 %84, i64 0, metadata !11406, metadata !11409), !dbg !11410
  call void @llvm.dbg.value(metadata %"class.kj::parse::IteratorInput"* %30, i64 0, metadata !11405, metadata !8316), !dbg !11411
  call void @llvm.dbg.declare(metadata %"class.capnp::_::IndexingIterator"* undef, metadata !11402, metadata !8316), !dbg !11407
  call void @llvm.dbg.declare(metadata %"class.capnp::_::IndexingIterator"* undef, metadata !11406, metadata !8316), !dbg !11410
  %85 = getelementptr inbounds %"class.kj::parse::IteratorInput", %"class.kj::parse::IteratorInput"* %30, i64 0, i32 0, !dbg !11412
  store %"class.kj::parse::IteratorInput"* null, %"class.kj::parse::IteratorInput"** %85, align 8, !dbg !11412, !tbaa !11413
  %86 = getelementptr inbounds %"class.kj::parse::IteratorInput", %"class.kj::parse::IteratorInput"* %30, i64 0, i32 1, i32 0, !dbg !11416
  store %"class.capnp::List<capnp::compiler::Token, capnp::Kind::STRUCT>::Reader"* %29, %"class.capnp::List<capnp::compiler::Token, capnp::Kind::STRUCT>::Reader"** %86, align 8, !dbg !11416
  %87 = getelementptr inbounds %"class.kj::parse::IteratorInput", %"class.kj::parse::IteratorInput"* %30, i64 0, i32 1, i32 1, !dbg !11416
  store i32 0, i32* %87, align 8, !dbg !11416
  %88 = getelementptr inbounds %"class.kj::parse::IteratorInput", %"class.kj::parse::IteratorInput"* %30, i64 0, i32 2, i32 0, !dbg !11417
  store %"class.capnp::List<capnp::compiler::Token, capnp::Kind::STRUCT>::Reader"* %29, %"class.capnp::List<capnp::compiler::Token, capnp::Kind::STRUCT>::Reader"** %88, align 8, !dbg !11417
  %89 = getelementptr inbounds %"class.kj::parse::IteratorInput", %"class.kj::parse::IteratorInput"* %30, i64 0, i32 2, i32 1, !dbg !11417
  store i32 %84, i32* %89, align 8, !dbg !11417
  %90 = getelementptr inbounds %"class.kj::parse::IteratorInput", %"class.kj::parse::IteratorInput"* %30, i64 0, i32 3, i32 0, !dbg !11418
  store %"class.capnp::List<capnp::compiler::Token, capnp::Kind::STRUCT>::Reader"* %29, %"class.capnp::List<capnp::compiler::Token, capnp::Kind::STRUCT>::Reader"** %90, align 8, !dbg !11418
  %91 = getelementptr inbounds %"class.kj::parse::IteratorInput", %"class.kj::parse::IteratorInput"* %30, i64 0, i32 3, i32 1, !dbg !11418
  store i32 0, i32* %91, align 8, !dbg !11418
  call void @llvm.dbg.value(metadata %"class.kj::parse::IteratorInput"* %30, i64 0, metadata !11149, metadata !8316), !dbg !11401
  call void @llvm.dbg.value(metadata %"class.kj::parse::IteratorInput"* %30, i64 0, metadata !11419, metadata !8316), !dbg !11422
  call void @llvm.dbg.value(metadata %"class.capnp::List<capnp::compiler::Token, capnp::Kind::STRUCT>::Reader"* %29, i64 0, metadata !11380, metadata !8316), !dbg !11424
  call void @llvm.dbg.value(metadata %"class.capnp::List<capnp::compiler::Token, capnp::Kind::STRUCT>::Reader"* %29, i64 0, metadata !11385, metadata !8316), !dbg !11426
  call void @llvm.dbg.value(metadata %"class.capnp::List<capnp::compiler::Token, capnp::Kind::STRUCT>::Reader"* %29, i64 0, metadata !11390, metadata !8475), !dbg !11428
  call void @llvm.dbg.value(metadata %"class.capnp::_::IndexingIterator"* undef, i64 0, metadata !11430, metadata !8316), !dbg !11435
  call void @llvm.dbg.value(metadata %"class.capnp::_::IndexingIterator"* undef, i64 0, metadata !11433, metadata !8316), !dbg !11437
  %92 = icmp eq i32 %84, 0, !dbg !11438
  br i1 %92, label %339, label %93, !dbg !11439

; <label>:93:                                     ; preds = %81
  %94 = getelementptr inbounds %"class.kj::_::NullableValue", %"class.kj::_::NullableValue"* %31, i64 0, i32 0, !dbg !11440
  call void @llvm.lifetime.start.p0i8(i64 40, i8* nonnull %94) #10, !dbg !11440
  %95 = getelementptr inbounds %"class.kj::Maybe.15", %"class.kj::Maybe.15"* %32, i64 0, i32 0, i32 0, !dbg !11441
  call void @llvm.lifetime.start.p0i8(i64 40, i8* nonnull %95) #10, !dbg !11441
  call void @llvm.dbg.value(metadata %"class.capnp::compiler::CapnpParser"* %28, i64 0, metadata !9598, metadata !8316), !dbg !11278
  call void @llvm.dbg.value(metadata %"class.capnp::compiler::CapnpParser"* %28, i64 0, metadata !11442, metadata !11447), !dbg !11448
  call void @llvm.dbg.value(metadata %"class.kj::parse::IteratorInput"* %30, i64 0, metadata !11445, metadata !8316), !dbg !11450
  %96 = getelementptr inbounds %"class.capnp::compiler::CapnpParser", %"class.capnp::compiler::CapnpParser"* %28, i64 0, i32 3, i32 5, i32 1, !dbg !11451
  %97 = load %"struct.kj::parse::ParserRef<kj::parse::IteratorInput<capnp::compiler::Token::Reader, capnp::_::IndexingIterator<const capnp::List<capnp::compiler::Token, capnp::Kind::STRUCT>::Reader, capnp::compiler::Token::Reader> >, capnp::Orphan<capnp::compiler::Expression> >::Wrapper"*, %"struct.kj::parse::ParserRef<kj::parse::IteratorInput<capnp::compiler::Token::Reader, capnp::_::IndexingIterator<const capnp::List<capnp::compiler::Token, capnp::Kind::STRUCT>::Reader, capnp::compiler::Token::Reader> >, capnp::Orphan<capnp::compiler::Expression> >::Wrapper"** %96, align 8, !dbg !11451, !tbaa !11452, !noalias !11454
  %98 = bitcast %"struct.kj::parse::ParserRef<kj::parse::IteratorInput<capnp::compiler::Token::Reader, capnp::_::IndexingIterator<const capnp::List<capnp::compiler::Token, capnp::Kind::STRUCT>::Reader, capnp::compiler::Token::Reader> >, capnp::Orphan<capnp::compiler::Expression> >::Wrapper"* %97 to void (%"class.kj::Maybe.15"*, %"struct.kj::parse::ParserRef<kj::parse::IteratorInput<capnp::compiler::Token::Reader, capnp::_::IndexingIterator<const capnp::List<capnp::compiler::Token, capnp::Kind::STRUCT>::Reader, capnp::compiler::Token::Reader> >, capnp::Orphan<capnp::compiler::Expression> >::Wrapper"*, i8*, %"class.kj::parse::IteratorInput"*)***, !dbg !11457
  %99 = load void (%"class.kj::Maybe.15"*, %"struct.kj::parse::ParserRef<kj::parse::IteratorInput<capnp::compiler::Token::Reader, capnp::_::IndexingIterator<const capnp::List<capnp::compiler::Token, capnp::Kind::STRUCT>::Reader, capnp::compiler::Token::Reader> >, capnp::Orphan<capnp::compiler::Expression> >::Wrapper"*, i8*, %"class.kj::parse::IteratorInput"*)**, void (%"class.kj::Maybe.15"*, %"struct.kj::parse::ParserRef<kj::parse::IteratorInput<capnp::compiler::Token::Reader, capnp::_::IndexingIterator<const capnp::List<capnp::compiler::Token, capnp::Kind::STRUCT>::Reader, capnp::compiler::Token::Reader> >, capnp::Orphan<capnp::compiler::Expression> >::Wrapper"*, i8*, %"class.kj::parse::IteratorInput"*)*** %98, align 8, !dbg !11457, !tbaa !8460, !noalias !11454
  %100 = load void (%"class.kj::Maybe.15"*, %"struct.kj::parse::ParserRef<kj::parse::IteratorInput<capnp::compiler::Token::Reader, capnp::_::IndexingIterator<const capnp::List<capnp::compiler::Token, capnp::Kind::STRUCT>::Reader, capnp::compiler::Token::Reader> >, capnp::Orphan<capnp::compiler::Expression> >::Wrapper"*, i8*, %"class.kj::parse::IteratorInput"*)*, void (%"class.kj::Maybe.15"*, %"struct.kj::parse::ParserRef<kj::parse::IteratorInput<capnp::compiler::Token::Reader, capnp::_::IndexingIterator<const capnp::List<capnp::compiler::Token, capnp::Kind::STRUCT>::Reader, capnp::compiler::Token::Reader> >, capnp::Orphan<capnp::compiler::Expression> >::Wrapper"*, i8*, %"class.kj::parse::IteratorInput"*)** %99, align 8, !dbg !11457, !noalias !11454
  %101 = getelementptr inbounds %"class.capnp::compiler::CapnpParser", %"class.capnp::compiler::CapnpParser"* %28, i64 0, i32 3, i32 5, i32 0, !dbg !11458
  %102 = load i8*, i8** %101, align 8, !dbg !11458, !tbaa !11459, !noalias !11454
  invoke void %100(%"class.kj::Maybe.15"* nonnull sret %32, %"struct.kj::parse::ParserRef<kj::parse::IteratorInput<capnp::compiler::Token::Reader, capnp::_::IndexingIterator<const capnp::List<capnp::compiler::Token, capnp::Kind::STRUCT>::Reader, capnp::compiler::Token::Reader> >, capnp::Orphan<capnp::compiler::Expression> >::Wrapper"* %97, i8* %102, %"class.kj::parse::IteratorInput"* nonnull dereferenceable(56) %30)
          to label %103 unwind label %132, !dbg !11457

; <label>:103:                                    ; preds = %93
  call void @llvm.dbg.value(metadata %"class.kj::_::NullableValue"* %31, i64 0, metadata !11460, metadata !8316), !dbg !11465
  call void @llvm.dbg.value(metadata %"class.kj::Maybe.15"* %32, i64 0, metadata !11463, metadata !8475), !dbg !11467
  %104 = load i8, i8* %95, align 8, !dbg !11468, !tbaa !11469, !range !8348
  %105 = icmp eq i8 %104, 0, !dbg !11468
  store i8 %104, i8* %94, align 8, !dbg !11471, !tbaa !11469
  br i1 %105, label %227, label %106, !dbg !11472

; <label>:106:                                    ; preds = %103
  call void @llvm.dbg.value(metadata %"class.kj::_::NullableValue"* %31, i64 0, metadata !11474, metadata !11484), !dbg !11485
  call void @llvm.dbg.value(metadata %"class.kj::Maybe.15"* %32, i64 0, metadata !11479, metadata !11484), !dbg !11489
  call void @llvm.dbg.value(metadata %"class.kj::_::NullableValue"* %31, i64 0, metadata !11490, metadata !11484), !dbg !11494
  call void @llvm.dbg.value(metadata %"class.kj::Maybe.15"* %32, i64 0, metadata !11493, metadata !11484), !dbg !11496
  call void @llvm.dbg.value(metadata %"class.kj::_::NullableValue"* %31, i64 0, metadata !11497, metadata !11484), !dbg !11502
  call void @llvm.dbg.value(metadata %"class.kj::Maybe.15"* %32, i64 0, metadata !11500, metadata !11484), !dbg !11504
  %107 = getelementptr inbounds %"class.kj::_::NullableValue", %"class.kj::_::NullableValue"* %31, i64 0, i32 1, i32 0, i32 0, i32 2, !dbg !11505
  %108 = getelementptr inbounds %"class.kj::Maybe.15", %"class.kj::Maybe.15"* %32, i64 0, i32 0, i32 1, i32 0, i32 0, i32 2, !dbg !11506
  %109 = bitcast %"class.capnp::_::CapTableBuilder"** %108 to <2 x i64>*, !dbg !11506
  %110 = load <2 x i64>, <2 x i64>* %109, align 8, !dbg !11506, !tbaa !11507
  %111 = bitcast %"class.capnp::_::CapTableBuilder"** %107 to <2 x i64>*, !dbg !11505
  store <2 x i64> %110, <2 x i64>* %111, align 8, !dbg !11505, !tbaa !11507
  %112 = getelementptr inbounds %"class.kj::Maybe.15", %"class.kj::Maybe.15"* %32, i64 0, i32 0, i32 1, i32 0, i32 0, i32 0, i32 0, !dbg !11508
  %113 = getelementptr inbounds %"class.kj::_::NullableValue", %"class.kj::_::NullableValue"* %31, i64 0, i32 1, i32 0, i32 0, i32 0, i32 0, !dbg !11508
  %114 = bitcast i64* %112 to <2 x i64>*, !dbg !11508
  %115 = load <2 x i64>, <2 x i64>* %114, align 8, !dbg !11508
  %116 = bitcast i64* %113 to <2 x i64>*, !dbg !11508
  store <2 x i64> %115, <2 x i64>* %116, align 8, !dbg !11508
  call void @llvm.dbg.value(metadata %"class.kj::Maybe.15"* %32, i64 0, metadata !11510, metadata !8475), !dbg !11513
  call void @llvm.dbg.value(metadata %"class.kj::Maybe.15"* %32, i64 0, metadata !11522, metadata !11484), !dbg !11527
  call void @llvm.dbg.value(metadata %"class.kj::Maybe.15"* %32, i64 0, metadata !11532, metadata !11484), !dbg !11536
  call void @llvm.lifetime.end.p0i8(i64 40, i8* nonnull %95) #10, !dbg !11441
  call void @llvm.dbg.value(metadata %"class.kj::_::NullableValue"* %31, i64 0, metadata !11151, metadata !8316), !dbg !11441
  call void @llvm.dbg.value(metadata %"class.kj::parse::IteratorInput"* %30, i64 0, metadata !11149, metadata !8316), !dbg !11401
  call void @llvm.dbg.value(metadata %"class.kj::parse::IteratorInput"* %30, i64 0, metadata !11419, metadata !8316), !dbg !11538
  %117 = load i32, i32* %87, align 8, !dbg !11540
  call void @llvm.dbg.value(metadata %"class.capnp::List<capnp::compiler::Token, capnp::Kind::STRUCT>::Reader"* %29, i64 0, metadata !11380, metadata !8316), !dbg !11541
  call void @llvm.dbg.value(metadata %"class.capnp::List<capnp::compiler::Token, capnp::Kind::STRUCT>::Reader"* %29, i64 0, metadata !11385, metadata !8316), !dbg !11543
  call void @llvm.dbg.value(metadata %"class.capnp::List<capnp::compiler::Token, capnp::Kind::STRUCT>::Reader"* %29, i64 0, metadata !11390, metadata !8475), !dbg !11545
  %118 = load i32, i32* %83, align 8, !dbg !11547, !tbaa !11396
  call void @llvm.dbg.value(metadata %"class.capnp::_::IndexingIterator"* undef, i64 0, metadata !11548, metadata !8316), !dbg !11552
  call void @llvm.dbg.value(metadata %"class.capnp::_::IndexingIterator"* undef, i64 0, metadata !11551, metadata !8316), !dbg !11554
  %119 = icmp eq i32 %117, %118, !dbg !11555
  br i1 %119, label %157, label %142, !dbg !11556, !prof !11557

; <label>:120:                                    ; preds = %45, %42, %4
  %121 = landingpad { i8*, i32 }
          cleanup, !dbg !11558
  %122 = extractvalue { i8*, i32 } %121, 0, !dbg !11558
  %123 = extractvalue { i8*, i32 } %121, 1, !dbg !11558
  br label %392, !dbg !11558

; <label>:124:                                    ; preds = %320, %52, %49
  %125 = landingpad { i8*, i32 }
          cleanup, !dbg !11558
  %126 = extractvalue { i8*, i32 } %125, 0, !dbg !11558
  %127 = extractvalue { i8*, i32 } %125, 1, !dbg !11558
  br label %389, !dbg !11558

; <label>:128:                                    ; preds = %59, %55
  %129 = landingpad { i8*, i32 }
          cleanup, !dbg !11558
  %130 = extractvalue { i8*, i32 } %129, 0, !dbg !11558
  %131 = extractvalue { i8*, i32 } %129, 1, !dbg !11558
  br label %386, !dbg !11559

; <label>:132:                                    ; preds = %93
  %133 = landingpad { i8*, i32 }
          cleanup, !dbg !11560
  %134 = extractvalue { i8*, i32 } %133, 0, !dbg !11560
  %135 = extractvalue { i8*, i32 } %133, 1, !dbg !11560
  call void @llvm.lifetime.end.p0i8(i64 40, i8* nonnull %95) #10, !dbg !11441
  br label %336, !dbg !11441

; <label>:136:                                    ; preds = %222, %202, %200, %189, %182, %157
  %137 = landingpad { i8*, i32 }
          cleanup, !dbg !11560
  br label %138, !dbg !11560

; <label>:138:                                    ; preds = %188, %136
  %139 = phi { i8*, i32 } [ %137, %136 ], [ %187, %188 ]
  %140 = extractvalue { i8*, i32 } %139, 0, !dbg !11560
  %141 = extractvalue { i8*, i32 } %139, 1, !dbg !11560
  br label %325, !dbg !11560

; <label>:142:                                    ; preds = %106
  %143 = bitcast %"class.kj::_::Debug::Fault"* %33 to i8*, !dbg !11561
  call void @llvm.lifetime.start.p0i8(i64 8, i8* nonnull %143) #10, !dbg !11561
  invoke void @_ZN2kj1_5Debug5FaultC2INS_9Exception4TypeEJRA23_KcEEEPS6_iT_S9_S9_DpOT0_(%"class.kj::_::Debug::Fault"* nonnull %33, i8* getelementptr inbounds ([29 x i8], [29 x i8]* @.str, i64 0, i64 0), i32 75, i32 0, i8* getelementptr inbounds ([42 x i8], [42 x i8]* @.str.1, i64 0, i64 0), i8* getelementptr inbounds ([25 x i8], [25 x i8]* @.str.2, i64 0, i64 0), [23 x i8]* nonnull dereferenceable(23) @.str.3)
          to label %144 unwind label %146, !dbg !11561

; <label>:144:                                    ; preds = %142
  invoke void @_ZN2kj1_5Debug5Fault5fatalEv(%"class.kj::_::Debug::Fault"* nonnull %33) #12
          to label %145 unwind label %150, !dbg !11562

; <label>:145:                                    ; preds = %144
  unreachable, !dbg !11562

; <label>:146:                                    ; preds = %142
  %147 = landingpad { i8*, i32 }
          cleanup, !dbg !11564
  %148 = extractvalue { i8*, i32 } %147, 0, !dbg !11564
  %149 = extractvalue { i8*, i32 } %147, 1, !dbg !11564
  br label %154, !dbg !11564

; <label>:150:                                    ; preds = %144
  %151 = landingpad { i8*, i32 }
          cleanup, !dbg !11565
  %152 = extractvalue { i8*, i32 } %151, 0, !dbg !11565
  %153 = extractvalue { i8*, i32 } %151, 1, !dbg !11565
  invoke void @_ZN2kj1_5Debug5FaultD1Ev(%"class.kj::_::Debug::Fault"* nonnull %33)
          to label %154 unwind label %398, !dbg !11562

; <label>:154:                                    ; preds = %150, %146
  %155 = phi i32 [ %153, %150 ], [ %149, %146 ]
  %156 = phi i8* [ %152, %150 ], [ %148, %146 ]
  call void @llvm.lifetime.end.p0i8(i64 8, i8* nonnull %143) #10, !dbg !11562
  br label %325, !dbg !11562

; <label>:157:                                    ; preds = %106
  call void @llvm.dbg.value(metadata %"class.kj::_::NullableValue"* %31, i64 0, metadata !11151, metadata !8316), !dbg !11441
  call void @llvm.dbg.value(metadata %"class.kj::_::NullableValue"* %31, i64 0, metadata !11566, metadata !11484), !dbg !11569
  %158 = getelementptr inbounds %"class.kj::_::NullableValue", %"class.kj::_::NullableValue"* %31, i64 0, i32 1, i32 0, i32 0, !dbg !11571
  %159 = bitcast %"class.capnp::_::StructReader"* %5 to i8*, !dbg !11572
  call void @llvm.lifetime.start.p0i8(i64 48, i8* nonnull %159), !dbg !11572, !noalias !11589
  call void @llvm.dbg.value(metadata %"class.capnp::_::OrphanBuilder"* %158, i64 0, metadata !11587, metadata !8316), !dbg !11572
  invoke void @_ZNK5capnp1_13OrphanBuilder14asStructReaderENS0_10StructSizeE(%"class.capnp::_::StructReader"* nonnull sret %5, %"class.capnp::_::OrphanBuilder"* nonnull %158, i32 131075)
          to label %160 unwind label %136, !dbg !11592

; <label>:160:                                    ; preds = %157
  %161 = bitcast %"class.capnp::_::StructReader"* %5 to <2 x i64>*, !dbg !11593
  %162 = load <2 x i64>, <2 x i64>* %161, align 16, !dbg !11593
  %163 = getelementptr inbounds %"class.capnp::_::StructReader", %"class.capnp::_::StructReader"* %5, i64 0, i32 2, !dbg !11593
  %164 = bitcast i8** %163 to %"class.capnp::_::DirectWireValue"**, !dbg !11593
  %165 = load %"class.capnp::_::DirectWireValue"*, %"class.capnp::_::DirectWireValue"** %164, align 16, !dbg !11593
  %166 = getelementptr inbounds %"class.capnp::_::StructReader", %"class.capnp::_::StructReader"* %5, i64 0, i32 3, !dbg !11593
  %167 = bitcast %"struct.capnp::_::WirePointer"** %166 to %"class.capnp::word"**, !dbg !11593
  %168 = load %"class.capnp::word"*, %"class.capnp::word"** %167, align 8, !dbg !11593
  %169 = getelementptr inbounds %"class.capnp::_::StructReader", %"class.capnp::_::StructReader"* %5, i64 0, i32 4, !dbg !11593
  %170 = load i32, i32* %169, align 16, !dbg !11593
  %171 = getelementptr inbounds %"class.capnp::_::StructReader", %"class.capnp::_::StructReader"* %5, i64 0, i32 5, !dbg !11593
  %172 = load i16, i16* %171, align 4, !dbg !11593
  %173 = getelementptr inbounds %"class.capnp::_::StructReader", %"class.capnp::_::StructReader"* %5, i64 0, i32 7, !dbg !11593
  %174 = load i32, i32* %173, align 8, !dbg !11593
  call void @llvm.dbg.value(metadata %"class.capnp::compiler::Expression::Reader"* undef, i64 0, metadata !11596, metadata !8316) #10, !dbg !11593
  call void @llvm.lifetime.end.p0i8(i64 48, i8* nonnull %159), !dbg !11600, !noalias !11589
  %175 = bitcast %"class.capnp::DynamicStruct::Builder"* %14 to i8*
  call void @llvm.lifetime.start.p0i8(i64 48, i8* nonnull %175)
  %176 = bitcast %"class.capnp::List<capnp::compiler::Expression::Param, capnp::Kind::STRUCT>::Reader"* %15 to i8*
  call void @llvm.lifetime.start.p0i8(i64 48, i8* nonnull %176)
  call void @llvm.dbg.value(metadata i64 undef, i64 0, metadata !8950, metadata !8945), !dbg !9581
  call void @llvm.dbg.value(metadata i64 undef, i64 0, metadata !8950, metadata !8947), !dbg !9581
  call void @llvm.dbg.value(metadata %"class.capnp::_::DirectWireValue"* %165, i64 0, metadata !8950, metadata !11601), !dbg !9581
  call void @llvm.dbg.value(metadata %"class.capnp::word"* %168, i64 0, metadata !8950, metadata !11602), !dbg !9581
  call void @llvm.dbg.value(metadata i32 %170, i64 0, metadata !8950, metadata !11603), !dbg !9581
  call void @llvm.dbg.value(metadata i16 %172, i64 0, metadata !8950, metadata !11604), !dbg !9581
  call void @llvm.dbg.value(metadata i32 %174, i64 0, metadata !8950, metadata !11605), !dbg !9581
  call void @llvm.dbg.value(metadata %class.anon* undef, i64 0, metadata !8962, metadata !8316), !dbg !11606
  call void @llvm.dbg.value(metadata %"class.capnp::compiler::Expression::Reader"* undef, i64 0, metadata !11607, metadata !8316), !dbg !11611
  call void @llvm.dbg.value(metadata %"class.capnp::compiler::Expression::Reader"* undef, i64 0, metadata !11613, metadata !8316), !dbg !11616
  call void @llvm.dbg.value(metadata %"class.capnp::compiler::Expression::Reader"* undef, i64 0, metadata !11618, metadata !8475), !dbg !11626
  call void @llvm.dbg.value(metadata i32 0, i64 0, metadata !11625, metadata !8316), !dbg !11628
  %177 = icmp ult i32 %170, 16, !dbg !11629
  br i1 %177, label %182, label %178, !dbg !11631

; <label>:178:                                    ; preds = %160
  %179 = getelementptr inbounds %"class.capnp::_::DirectWireValue", %"class.capnp::_::DirectWireValue"* %165, i64 0, i32 0, !dbg !11632
  %180 = load i16, i16* %179, align 2, !dbg !11632, !tbaa !11639
  %181 = icmp eq i16 %180, 7, !dbg !11642
  br i1 %181, label %189, label %182, !dbg !11643, !prof !11557

; <label>:182:                                    ; preds = %178, %160
  %183 = bitcast %"class.kj::_::Debug::Fault"* %10 to i8*, !dbg !11644
  call void @llvm.lifetime.start.p0i8(i64 8, i8* nonnull %183) #10, !dbg !11644
  call void @llvm.dbg.value(metadata %"class.kj::_::Debug::Fault"* %10, i64 0, metadata !8964, metadata !8316), !dbg !11644
  invoke void @_ZN2kj1_5Debug5FaultC2INS_9Exception4TypeEJRA33_KcEEEPS6_iT_S9_S9_DpOT0_(%"class.kj::_::Debug::Fault"* nonnull %10, i8* getelementptr inbounds ([29 x i8], [29 x i8]* @.str, i64 0, i64 0), i32 116, i32 0, i8* getelementptr inbounds ([21 x i8], [21 x i8]* @.str.13, i64 0, i64 0), i8* getelementptr inbounds ([35 x i8], [35 x i8]* @.str.14, i64 0, i64 0), [33 x i8]* nonnull dereferenceable(33) @.str.15)
          to label %184 unwind label %136, !dbg !11644

; <label>:184:                                    ; preds = %182
  invoke void @_ZN2kj1_5Debug5Fault5fatalEv(%"class.kj::_::Debug::Fault"* nonnull %10) #12
          to label %185 unwind label %186, !dbg !11645

; <label>:185:                                    ; preds = %184
  unreachable, !dbg !11645

; <label>:186:                                    ; preds = %184
  %187 = landingpad { i8*, i32 }
          cleanup, !dbg !11647
  invoke void @_ZN2kj1_5Debug5FaultD1Ev(%"class.kj::_::Debug::Fault"* nonnull %10)
          to label %188 unwind label %223, !dbg !11645

; <label>:188:                                    ; preds = %186
  call void @llvm.lifetime.end.p0i8(i64 8, i8* nonnull %183) #10, !dbg !11645
  br label %138

; <label>:189:                                    ; preds = %178
  %190 = bitcast %"class.(anonymous namespace)::ThrowingErrorReporter"* %11 to i8*, !dbg !11648
  call void @llvm.lifetime.start.p0i8(i64 8, i8* nonnull %190) #10, !dbg !11648
  call void @llvm.dbg.value(metadata %"class.(anonymous namespace)::ThrowingErrorReporter"* %11, i64 0, metadata !9093, metadata !8316), !dbg !11649
  call void @llvm.dbg.value(metadata %"class.(anonymous namespace)::ThrowingErrorReporter"* %11, i64 0, metadata !11169, metadata !8316), !dbg !11650
  %191 = getelementptr inbounds %"class.(anonymous namespace)::ThrowingErrorReporter", %"class.(anonymous namespace)::ThrowingErrorReporter"* %11, i64 0, i32 0, i32 0, !dbg !11652
  store i32 (...)** bitcast (i8** getelementptr inbounds ({ [4 x i8*] }, { [4 x i8*] }* @_ZTVN12_GLOBAL__N_121ThrowingErrorReporterE, i64 0, inrange i32 0, i64 2) to i32 (...)**), i32 (...)*** %191, align 8, !dbg !11652, !tbaa !8460
  %192 = bitcast %"class.(anonymous namespace)::ExternalResolver"* %12 to i8*, !dbg !11653
  call void @llvm.lifetime.start.p0i8(i64 8, i8* nonnull %192) #10, !dbg !11653
  call void @llvm.dbg.value(metadata %"class.(anonymous namespace)::ExternalResolver"* %12, i64 0, metadata !9120, metadata !8316), !dbg !11654
  call void @llvm.dbg.value(metadata %"class.(anonymous namespace)::ExternalResolver"* %12, i64 0, metadata !11655, metadata !8316), !dbg !11662
  %193 = getelementptr inbounds %"class.(anonymous namespace)::ExternalResolver", %"class.(anonymous namespace)::ExternalResolver"* %12, i64 0, i32 0, i32 0, !dbg !11664
  store i32 (...)** bitcast (i8** getelementptr inbounds ({ [4 x i8*] }, { [4 x i8*] }* @_ZTVN12_GLOBAL__N_116ExternalResolverE, i64 0, inrange i32 0, i64 2) to i32 (...)**), i32 (...)*** %193, align 8, !dbg !11664, !tbaa !8460
  call void @llvm.dbg.declare(metadata %"class.capnp::Orphanage"* undef, metadata !9579, metadata !8316), !dbg !11665
  %194 = bitcast %"class.capnp::DynamicStruct::Builder"* %3 to i8*, !dbg !11666
  %195 = bitcast %"class.capnp::DynamicStruct::Builder"* %7 to i8*
  call void @llvm.lifetime.start.p0i8(i64 48, i8* nonnull %195)
  call void @llvm.memcpy.p0i8.p0i8.i64(i8* nonnull %195, i8* nonnull %194, i64 48, i32 8, i1 false)
  %196 = bitcast %"class.capnp::_::StructBuilder"* %6 to i8*, !dbg !11667
  call void @llvm.lifetime.start.p0i8(i64 40, i8* nonnull %196) #10, !dbg !11667
  call void @llvm.dbg.value(metadata %"class.capnp::_::StructBuilder"* %6, i64 0, metadata !11676, metadata !8316), !dbg !11678
  call void @llvm.dbg.value(metadata %"class.capnp::DynamicStruct::Builder"* %7, i64 0, metadata !11679, metadata !8316) #10, !dbg !11688
  %197 = getelementptr inbounds %"class.capnp::DynamicStruct::Builder", %"class.capnp::DynamicStruct::Builder"* %7, i64 0, i32 1, !dbg !11690
  %198 = bitcast %"class.capnp::_::StructBuilder"* %197 to i8*, !dbg !11691
  call void @llvm.memcpy.p0i8.p0i8.i64(i8* nonnull %196, i8* %198, i64 40, i32 8, i1 false) #10, !dbg !11691
  call void @llvm.dbg.value(metadata %"class.capnp::_::StructBuilder"* %6, i64 0, metadata !11676, metadata !8316), !dbg !11678
  %199 = invoke %"class.capnp::_::BuilderArena"* @_ZN5capnp1_13StructBuilder8getArenaEv(%"class.capnp::_::StructBuilder"* nonnull %6)
          to label %200 unwind label %136, !dbg !11692

; <label>:200:                                    ; preds = %189
  call void @llvm.dbg.value(metadata %"class.capnp::_::StructBuilder"* %6, i64 0, metadata !11676, metadata !8316), !dbg !11678
  %201 = invoke %"class.capnp::_::CapTableBuilder"* @_ZN5capnp1_13StructBuilder11getCapTableEv(%"class.capnp::_::StructBuilder"* nonnull %6)
          to label %202 unwind label %136, !dbg !11693

; <label>:202:                                    ; preds = %200
  call void @llvm.lifetime.end.p0i8(i64 40, i8* nonnull %196) #10, !dbg !11694
  call void @llvm.lifetime.end.p0i8(i64 48, i8* nonnull %195), !dbg !11694
  call void @llvm.dbg.value(metadata %"class.capnp::_::BuilderArena"* %199, i64 0, metadata !9579, metadata !8945), !dbg !11665
  call void @llvm.dbg.value(metadata %"class.capnp::_::CapTableBuilder"* %201, i64 0, metadata !9579, metadata !8947), !dbg !11665
  %203 = bitcast %"class.capnp::compiler::ValueTranslator"* %13 to i8*, !dbg !11695
  call void @llvm.lifetime.start.p0i8(i64 32, i8* nonnull %203) #10, !dbg !11695
  %204 = getelementptr inbounds %"class.(anonymous namespace)::ExternalResolver", %"class.(anonymous namespace)::ExternalResolver"* %12, i64 0, i32 0, !dbg !11696
  %205 = getelementptr inbounds %"class.(anonymous namespace)::ThrowingErrorReporter", %"class.(anonymous namespace)::ThrowingErrorReporter"* %11, i64 0, i32 0, !dbg !11697
  call void @llvm.dbg.value(metadata %"class.capnp::compiler::ValueTranslator"* %13, i64 0, metadata !9580, metadata !8316), !dbg !11698
  call void @llvm.dbg.value(metadata %"class.capnp::_::BuilderArena"* %199, i64 0, metadata !11699, metadata !8945), !dbg !11706
  call void @llvm.dbg.value(metadata %"class.capnp::_::CapTableBuilder"* %201, i64 0, metadata !11699, metadata !8947), !dbg !11706
  call void @llvm.dbg.value(metadata %"class.capnp::compiler::ValueTranslator"* %13, i64 0, metadata !11702, metadata !8316), !dbg !11708
  call void @llvm.dbg.value(metadata %"class.capnp::compiler::ValueTranslator::Resolver"* %204, i64 0, metadata !11704, metadata !8316), !dbg !11709
  call void @llvm.dbg.value(metadata %"class.capnp::compiler::ErrorReporter"* %205, i64 0, metadata !11705, metadata !8316), !dbg !11710
  call void @llvm.dbg.declare(metadata %"class.capnp::Orphanage"* undef, metadata !11699, metadata !8316), !dbg !11706
  %206 = getelementptr inbounds %"class.capnp::compiler::ValueTranslator", %"class.capnp::compiler::ValueTranslator"* %13, i64 0, i32 0, !dbg !11711
  store %"class.capnp::compiler::ValueTranslator::Resolver"* %204, %"class.capnp::compiler::ValueTranslator::Resolver"** %206, align 8, !dbg !11711, !tbaa !11712
  %207 = getelementptr inbounds %"class.capnp::compiler::ValueTranslator", %"class.capnp::compiler::ValueTranslator"* %13, i64 0, i32 1, !dbg !11713
  store %"class.capnp::compiler::ErrorReporter"* %205, %"class.capnp::compiler::ErrorReporter"** %207, align 8, !dbg !11713, !tbaa !11712
  %208 = getelementptr inbounds %"class.capnp::compiler::ValueTranslator", %"class.capnp::compiler::ValueTranslator"* %13, i64 0, i32 2, i32 0, !dbg !11714
  store %"class.capnp::_::BuilderArena"* %199, %"class.capnp::_::BuilderArena"** %208, align 8, !dbg !11714
  %209 = getelementptr inbounds %"class.capnp::compiler::ValueTranslator", %"class.capnp::compiler::ValueTranslator"* %13, i64 0, i32 2, i32 1, !dbg !11714
  store %"class.capnp::_::CapTableBuilder"* %201, %"class.capnp::_::CapTableBuilder"** %209, align 8, !dbg !11714
  call void @llvm.memcpy.p0i8.p0i8.i64(i8* nonnull %175, i8* nonnull %194, i64 48, i32 8, i1 false), !dbg !11715
  call void @llvm.dbg.value(metadata %"class.capnp::compiler::Expression::Reader"* undef, i64 0, metadata !11716, metadata !8316), !dbg !11719
  call void @llvm.dbg.value(metadata %"class.capnp::compiler::Expression::Reader"* undef, i64 0, metadata !11310, metadata !8475), !dbg !11721
  call void @llvm.dbg.value(metadata i32 0, i64 0, metadata !11313, metadata !8316), !dbg !11723
  %210 = icmp eq i16 %172, 0, !dbg !11724
  %211 = select i1 %210, %"class.capnp::word"* null, %"class.capnp::word"* %168, !dbg !11725
  %212 = insertelement <2 x i1> undef, i1 %210, i32 0
  %213 = shufflevector <2 x i1> %212, <2 x i1> undef, <2 x i32> zeroinitializer, !dbg !11725
  %214 = select <2 x i1> %213, <2 x i64> zeroinitializer, <2 x i64> %162, !dbg !11725
  %215 = select i1 %210, i32 2147483647, i32 %174, !dbg !11725
  %216 = bitcast %"class.capnp::_::PointerReader"* %9 to i8*
  call void @llvm.lifetime.start.p0i8(i64 32, i8* nonnull %216), !noalias !11726
  %217 = bitcast %"class.capnp::_::ListReader"* %8 to i8*
  call void @llvm.lifetime.start.p0i8(i64 48, i8* nonnull %217), !noalias !11726
  %218 = bitcast %"class.capnp::_::PointerReader"* %9 to <2 x i64>*
  store <2 x i64> %214, <2 x i64>* %218, align 16, !noalias !11726
  %219 = getelementptr inbounds %"class.capnp::_::PointerReader", %"class.capnp::_::PointerReader"* %9, i64 0, i32 2
  %220 = bitcast %"struct.capnp::_::WirePointer"** %219 to %"class.capnp::word"**
  store %"class.capnp::word"* %211, %"class.capnp::word"** %220, align 16, !noalias !11726
  %221 = getelementptr inbounds %"class.capnp::_::PointerReader", %"class.capnp::_::PointerReader"* %9, i64 0, i32 3
  store i32 %215, i32* %221, align 8, !noalias !11726
  call void @llvm.dbg.value(metadata %"class.capnp::word"* null, i64 0, metadata !11729, metadata !8316), !dbg !11768
  call void @llvm.dbg.value(metadata %"class.capnp::_::PointerReader"* %9, i64 0, metadata !11770, metadata !8316), !dbg !11774
  call void @llvm.dbg.value(metadata %"class.capnp::word"* null, i64 0, metadata !11773, metadata !8316), !dbg !11776
  call void @llvm.dbg.value(metadata %"class.capnp::_::PointerReader"* %9, i64 0, metadata !11767, metadata !8316), !dbg !11777
  invoke void @_ZNK5capnp1_13PointerReader7getListENS_11ElementSizeEPKNS_4wordE(%"class.capnp::_::ListReader"* nonnull sret %8, %"class.capnp::_::PointerReader"* nonnull %9, i8 zeroext 7, %"class.capnp::word"* null)
          to label %222 unwind label %136, !dbg !11778

; <label>:222:                                    ; preds = %202
  call void @llvm.memcpy.p0i8.p0i8.i64(i8* nonnull %176, i8* nonnull %217, i64 48, i32 8, i1 false) #10, !dbg !11779
  call void @llvm.dbg.value(metadata %"class.capnp::List<capnp::compiler::Expression::Param, capnp::Kind::STRUCT>::Reader"* %15, i64 0, metadata !11782, metadata !8316) #10, !dbg !11779
  call void @llvm.lifetime.end.p0i8(i64 32, i8* nonnull %216), !dbg !11786, !noalias !11726
  call void @llvm.lifetime.end.p0i8(i64 48, i8* nonnull %217), !dbg !11786, !noalias !11726
  call void @llvm.dbg.value(metadata %"class.capnp::compiler::ValueTranslator"* %13, i64 0, metadata !9580, metadata !8316), !dbg !11698
  invoke void @_ZN5capnp8compiler15ValueTranslator15fillStructValueENS_13DynamicStruct7BuilderENS_4ListINS0_10Expression5ParamELNS_4KindE3EE6ReaderE(%"class.capnp::compiler::ValueTranslator"* nonnull %13, %"class.capnp::DynamicStruct::Builder"* byval nonnull align 8 %14, %"class.capnp::List<capnp::compiler::Expression::Param, capnp::Kind::STRUCT>::Reader"* byval nonnull align 8 %15)
          to label %226 unwind label %136, !dbg !11787

; <label>:223:                                    ; preds = %186
  %224 = landingpad { i8*, i32 }
          catch i8* null, !dbg !11645
  %225 = extractvalue { i8*, i32 } %224, 0, !dbg !11645
  call void @__clang_call_terminate(i8* %225) #11, !dbg !11645
  unreachable, !dbg !11645

; <label>:226:                                    ; preds = %222
  call void @llvm.lifetime.end.p0i8(i64 32, i8* nonnull %203) #10, !dbg !11788
  call void @llvm.lifetime.end.p0i8(i64 8, i8* nonnull %192) #10, !dbg !11788
  call void @llvm.lifetime.end.p0i8(i64 8, i8* nonnull %190) #10, !dbg !11788
  call void @llvm.lifetime.end.p0i8(i64 48, i8* nonnull %175), !dbg !11788
  call void @llvm.lifetime.end.p0i8(i64 48, i8* nonnull %176), !dbg !11788
  br label %282, !dbg !11788

; <label>:227:                                    ; preds = %103
  call void @llvm.dbg.value(metadata %"class.kj::Maybe.15"* %32, i64 0, metadata !11510, metadata !8475), !dbg !11513
  call void @llvm.lifetime.end.p0i8(i64 40, i8* nonnull %95) #10, !dbg !11441
  call void @llvm.dbg.value(metadata %"class.kj::_::NullableValue"* %31, i64 0, metadata !11151, metadata !8316), !dbg !11441
  call void @llvm.dbg.value(metadata %"class.kj::parse::IteratorInput"* %30, i64 0, metadata !11789, metadata !8316), !dbg !11792
  %228 = getelementptr inbounds %"class.kj::parse::IteratorInput", %"class.kj::parse::IteratorInput"* %30, i64 0, i32 1, !dbg !11794
  %229 = getelementptr inbounds %"class.kj::parse::IteratorInput", %"class.kj::parse::IteratorInput"* %30, i64 0, i32 3, !dbg !11795
  call void @llvm.dbg.value(metadata %"class.capnp::_::IndexingIterator"* %228, i64 0, metadata !11796, metadata !8316), !dbg !11805
  call void @llvm.dbg.value(metadata %"class.capnp::_::IndexingIterator"* %229, i64 0, metadata !11801, metadata !8316), !dbg !11807
  call void @llvm.dbg.value(metadata %"class.capnp::_::IndexingIterator"* %228, i64 0, metadata !11808, metadata !8316), !dbg !11812
  call void @llvm.dbg.value(metadata %"class.capnp::_::IndexingIterator"* %229, i64 0, metadata !11811, metadata !8316), !dbg !11814
  %230 = load i32, i32* %87, align 8, !dbg !11815, !tbaa !11816
  %231 = load i32, i32* %91, align 8, !dbg !11817, !tbaa !11816
  %232 = icmp ugt i32 %230, %231, !dbg !11818
  %233 = select i1 %232, %"class.capnp::_::IndexingIterator"* %228, %"class.capnp::_::IndexingIterator"* %229, !dbg !11819
  %234 = getelementptr inbounds %"class.capnp::_::IndexingIterator", %"class.capnp::_::IndexingIterator"* %233, i64 0, i32 1
  %235 = load i32, i32* %234, align 8
  call void @llvm.dbg.value(metadata %"class.capnp::List<capnp::compiler::Token, capnp::Kind::STRUCT>::Reader"* %29, i64 0, metadata !11380, metadata !8316), !dbg !11820
  call void @llvm.dbg.value(metadata %"class.capnp::List<capnp::compiler::Token, capnp::Kind::STRUCT>::Reader"* %29, i64 0, metadata !11385, metadata !8316), !dbg !11822
  call void @llvm.dbg.value(metadata %"class.capnp::List<capnp::compiler::Token, capnp::Kind::STRUCT>::Reader"* %29, i64 0, metadata !11390, metadata !8475), !dbg !11824
  %236 = load i32, i32* %83, align 8, !dbg !11826, !tbaa !11396
  call void @llvm.dbg.value(metadata %"class.capnp::_::IndexingIterator"* undef, i64 0, metadata !11155, metadata !8316), !dbg !11827
  call void @llvm.dbg.value(metadata %"class.capnp::_::IndexingIterator"* undef, i64 0, metadata !11548, metadata !8316), !dbg !11828
  call void @llvm.dbg.value(metadata %"class.capnp::_::IndexingIterator"* undef, i64 0, metadata !11551, metadata !8316), !dbg !11830
  %237 = icmp eq i32 %235, %236, !dbg !11831
  br i1 %237, label %238, label %253, !dbg !11832

; <label>:238:                                    ; preds = %227
  %239 = bitcast %"class.kj::_::Debug::Fault"* %34 to i8*, !dbg !11833
  call void @llvm.lifetime.start.p0i8(i64 8, i8* nonnull %239) #10, !dbg !11833
  invoke void @_ZN2kj1_5Debug5FaultC2INS_9Exception4TypeEJRA24_KcEEEPS6_iT_S9_S9_DpOT0_(%"class.kj::_::Debug::Fault"* nonnull %34, i8* getelementptr inbounds ([29 x i8], [29 x i8]* @.str, i64 0, i64 0), i32 81, i32 0, i8* null, i8* getelementptr inbounds ([26 x i8], [26 x i8]* @.str.4, i64 0, i64 0), [24 x i8]* nonnull dereferenceable(24) @.str.5)
          to label %240 unwind label %242, !dbg !11833

; <label>:240:                                    ; preds = %238
  invoke void @_ZN2kj1_5Debug5Fault5fatalEv(%"class.kj::_::Debug::Fault"* nonnull %34) #12
          to label %241 unwind label %246, !dbg !11834

; <label>:241:                                    ; preds = %240
  unreachable, !dbg !11834

; <label>:242:                                    ; preds = %238
  %243 = landingpad { i8*, i32 }
          cleanup, !dbg !11836
  %244 = extractvalue { i8*, i32 } %243, 0, !dbg !11836
  %245 = extractvalue { i8*, i32 } %243, 1, !dbg !11836
  br label %250, !dbg !11836

; <label>:246:                                    ; preds = %240
  %247 = landingpad { i8*, i32 }
          cleanup, !dbg !11837
  %248 = extractvalue { i8*, i32 } %247, 0, !dbg !11837
  %249 = extractvalue { i8*, i32 } %247, 1, !dbg !11837
  invoke void @_ZN2kj1_5Debug5FaultD1Ev(%"class.kj::_::Debug::Fault"* nonnull %34)
          to label %250 unwind label %398, !dbg !11834

; <label>:250:                                    ; preds = %246, %242
  %251 = phi i32 [ %249, %246 ], [ %245, %242 ]
  %252 = phi i8* [ %248, %246 ], [ %244, %242 ]
  call void @llvm.lifetime.end.p0i8(i64 8, i8* nonnull %239) #10, !dbg !11834
  br label %325, !dbg !11834

; <label>:253:                                    ; preds = %227
  %254 = getelementptr inbounds %"class.capnp::_::IndexingIterator", %"class.capnp::_::IndexingIterator"* %233, i64 0, i32 0
  %255 = load %"class.capnp::List<capnp::compiler::Token, capnp::Kind::STRUCT>::Reader"*, %"class.capnp::List<capnp::compiler::Token, capnp::Kind::STRUCT>::Reader"** %254, align 8
  call void @llvm.dbg.value(metadata %"class.capnp::_::IndexingIterator"* undef, i64 0, metadata !11838, metadata !8316), !dbg !11841
  %256 = bitcast %"class.capnp::_::StructReader"* %16 to i8*, !dbg !11844
  call void @llvm.lifetime.start.p0i8(i64 48, i8* nonnull %256), !dbg !11844, !noalias !11850
  call void @llvm.dbg.value(metadata %"class.capnp::List<capnp::compiler::Token, capnp::Kind::STRUCT>::Reader"* %255, i64 0, metadata !11847, metadata !8316), !dbg !11844
  call void @llvm.dbg.value(metadata i32 %235, i64 0, metadata !11848, metadata !8316), !dbg !11853
  %257 = getelementptr inbounds %"class.capnp::List<capnp::compiler::Token, capnp::Kind::STRUCT>::Reader", %"class.capnp::List<capnp::compiler::Token, capnp::Kind::STRUCT>::Reader"* %255, i64 0, i32 0, !dbg !11854
  invoke void @_ZNK5capnp1_10ListReader16getStructElementEj(%"class.capnp::_::StructReader"* nonnull sret %16, %"class.capnp::_::ListReader"* %257, i32 %235)
          to label %258 unwind label %278, !dbg !11855

; <label>:258:                                    ; preds = %253
  %259 = getelementptr inbounds %"class.capnp::_::StructReader", %"class.capnp::_::StructReader"* %16, i64 0, i32 2, !dbg !11856
  %260 = bitcast i8** %259 to %"class.capnp::_::DirectWireValue.27"**, !dbg !11856
  %261 = load %"class.capnp::_::DirectWireValue.27"*, %"class.capnp::_::DirectWireValue.27"** %260, align 8, !dbg !11856
  %262 = getelementptr inbounds %"class.capnp::_::StructReader", %"class.capnp::_::StructReader"* %16, i64 0, i32 4, !dbg !11856
  %263 = load i32, i32* %262, align 8, !dbg !11856
  call void @llvm.dbg.value(metadata %"class.capnp::compiler::Token::Reader"* undef, i64 0, metadata !11859, metadata !8316) #10, !dbg !11856
  call void @llvm.lifetime.end.p0i8(i64 48, i8* nonnull %256), !dbg !11863, !noalias !11850
  call void @llvm.dbg.value(metadata i8* getelementptr inbounds ([12 x i8], [12 x i8]* @.str.6, i64 0, i64 0), i64 0, metadata !11864, metadata !8945), !dbg !11876
  call void @llvm.dbg.value(metadata i64 12, i64 0, metadata !11864, metadata !8947), !dbg !11876
  call void @llvm.dbg.value(metadata %"class.capnp::compiler::ErrorReporter"* %47, i64 0, metadata !11873, metadata !8316), !dbg !11878
  call void @llvm.dbg.value(metadata %"class.capnp::compiler::Token::Reader"* undef, i64 0, metadata !11875, metadata !8316), !dbg !11879
  call void @llvm.dbg.declare(metadata %"class.kj::StringPtr"* undef, metadata !11864, metadata !8316), !dbg !11876
  %264 = bitcast %"class.(anonymous namespace)::ThrowingErrorReporter"* %25 to void (%"class.capnp::compiler::ErrorReporter"*, i32, i32, i8*, i64)***, !dbg !11880
  %265 = load void (%"class.capnp::compiler::ErrorReporter"*, i32, i32, i8*, i64)**, void (%"class.capnp::compiler::ErrorReporter"*, i32, i32, i8*, i64)*** %264, align 8, !dbg !11880, !tbaa !8460
  %266 = load void (%"class.capnp::compiler::ErrorReporter"*, i32, i32, i8*, i64)*, void (%"class.capnp::compiler::ErrorReporter"*, i32, i32, i8*, i64)** %265, align 8, !dbg !11880
  call void @llvm.dbg.value(metadata %"class.capnp::compiler::Token::Reader"* undef, i64 0, metadata !11881, metadata !8316), !dbg !11885
  call void @llvm.dbg.value(metadata %"class.capnp::compiler::Token::Reader"* undef, i64 0, metadata !11887, metadata !8475), !dbg !11894
  call void @llvm.dbg.value(metadata i32 1, i64 0, metadata !11893, metadata !8316), !dbg !11896
  %267 = icmp ult i32 %263, 64, !dbg !11897
  br i1 %267, label %275, label %268, !dbg !11899

; <label>:268:                                    ; preds = %258
  %269 = getelementptr inbounds %"class.capnp::_::DirectWireValue.27", %"class.capnp::_::DirectWireValue.27"* %261, i64 1, i32 0, !dbg !11900
  %270 = load i32, i32* %269, align 4, !dbg !11900, !tbaa !11907
  call void @llvm.dbg.value(metadata %"class.capnp::compiler::Token::Reader"* undef, i64 0, metadata !11909, metadata !8316), !dbg !11912
  call void @llvm.dbg.value(metadata %"class.capnp::compiler::Token::Reader"* undef, i64 0, metadata !11887, metadata !8475), !dbg !11914
  call void @llvm.dbg.value(metadata i32 4, i64 0, metadata !11893, metadata !8316), !dbg !11916
  %271 = icmp ult i32 %263, 160, !dbg !11917
  br i1 %271, label %275, label %272, !dbg !11918

; <label>:272:                                    ; preds = %268
  %273 = getelementptr inbounds %"class.capnp::_::DirectWireValue.27", %"class.capnp::_::DirectWireValue.27"* %261, i64 4, i32 0, !dbg !11919
  %274 = load i32, i32* %273, align 4, !dbg !11919, !tbaa !11907
  br label %275, !dbg !11921

; <label>:275:                                    ; preds = %272, %268, %258
  %276 = phi i32 [ %270, %272 ], [ %270, %268 ], [ 0, %258 ]
  %277 = phi i32 [ %274, %272 ], [ 0, %268 ], [ 0, %258 ]
  invoke void %266(%"class.capnp::compiler::ErrorReporter"* nonnull %47, i32 %276, i32 %277, i8* getelementptr inbounds ([12 x i8], [12 x i8]* @.str.6, i64 0, i64 0), i64 12)
          to label %282 unwind label %278, !dbg !11880

; <label>:278:                                    ; preds = %275, %253
  %279 = landingpad { i8*, i32 }
          cleanup, !dbg !11922
  %280 = extractvalue { i8*, i32 } %279, 0, !dbg !11922
  %281 = extractvalue { i8*, i32 } %279, 1, !dbg !11922
  br label %325, !dbg !11923

; <label>:282:                                    ; preds = %275, %226
  call void @llvm.dbg.value(metadata %"class.kj::_::NullableValue"* %31, i64 0, metadata !11510, metadata !8316), !dbg !11924
  %283 = load i8, i8* %94, align 8, !dbg !11926, !tbaa !11469, !range !8348
  %284 = icmp eq i8 %283, 0, !dbg !11926
  br i1 %284, label %291, label %285, !dbg !11927

; <label>:285:                                    ; preds = %282
  call void @llvm.dbg.value(metadata %"class.kj::_::NullableValue"* %31, i64 0, metadata !11522, metadata !11484), !dbg !11928
  call void @llvm.dbg.value(metadata %"class.kj::_::NullableValue"* %31, i64 0, metadata !11532, metadata !11484), !dbg !11930
  %286 = getelementptr inbounds %"class.kj::_::NullableValue", %"class.kj::_::NullableValue"* %31, i64 0, i32 1, i32 0, i32 0, i32 1, !dbg !11932
  %287 = load %"class.capnp::_::SegmentBuilder"*, %"class.capnp::_::SegmentBuilder"** %286, align 8, !dbg !11932, !tbaa !11940
  %288 = icmp eq %"class.capnp::_::SegmentBuilder"* %287, null, !dbg !11943
  br i1 %288, label %291, label %289, !dbg !11944

; <label>:289:                                    ; preds = %285
  %290 = getelementptr inbounds %"class.kj::_::NullableValue", %"class.kj::_::NullableValue"* %31, i64 0, i32 1, i32 0, i32 0, !dbg !11945
  invoke void @_ZN5capnp1_13OrphanBuilder9euthanizeEv(%"class.capnp::_::OrphanBuilder"* nonnull %290)
          to label %291 unwind label %321, !dbg !11946

; <label>:291:                                    ; preds = %289, %285, %282
  call void @llvm.lifetime.end.p0i8(i64 40, i8* nonnull %94) #10, !dbg !11440
  call void @llvm.dbg.value(metadata %"class.kj::parse::IteratorInput"* %30, i64 0, metadata !11149, metadata !8316), !dbg !11401
  call void @llvm.dbg.value(metadata %"class.kj::parse::IteratorInput"* %30, i64 0, metadata !11947, metadata !8316) #10, !dbg !11950
  %292 = load %"class.kj::parse::IteratorInput"*, %"class.kj::parse::IteratorInput"** %85, align 8, !dbg !11952, !tbaa !11413
  %293 = icmp eq %"class.kj::parse::IteratorInput"* %292, null, !dbg !11955
  br i1 %293, label %320, label %294, !dbg !11956

; <label>:294:                                    ; preds = %291
  %295 = bitcast { %"class.capnp::List<capnp::compiler::Token, capnp::Kind::STRUCT>::Reader"*, i32 }* %17 to %"class.capnp::_::IndexingIterator"*
  %296 = bitcast { %"class.capnp::List<capnp::compiler::Token, capnp::Kind::STRUCT>::Reader"*, i32 }* %17 to i8*, !dbg !11957
  call void @llvm.lifetime.start.p0i8(i64 16, i8* nonnull %296) #10, !dbg !11957
  %297 = getelementptr inbounds %"class.kj::parse::IteratorInput", %"class.kj::parse::IteratorInput"* %30, i64 0, i32 1, !dbg !11959
  %298 = getelementptr inbounds %"class.kj::parse::IteratorInput", %"class.kj::parse::IteratorInput"* %30, i64 0, i32 3, !dbg !11960
  call void @llvm.dbg.value(metadata %"class.capnp::_::IndexingIterator"* %297, i64 0, metadata !11796, metadata !8316) #10, !dbg !11961
  call void @llvm.dbg.value(metadata %"class.capnp::_::IndexingIterator"* %298, i64 0, metadata !11801, metadata !8316) #10, !dbg !11963
  call void @llvm.dbg.value(metadata %"class.capnp::_::IndexingIterator"* %297, i64 0, metadata !11808, metadata !8316) #10, !dbg !11964
  call void @llvm.dbg.value(metadata %"class.capnp::_::IndexingIterator"* %298, i64 0, metadata !11811, metadata !8316) #10, !dbg !11966
  %299 = load i32, i32* %87, align 8, !dbg !11967, !tbaa !11816
  %300 = load i32, i32* %91, align 8, !dbg !11968, !tbaa !11816
  %301 = icmp ugt i32 %299, %300, !dbg !11969
  %302 = select i1 %301, %"class.capnp::_::IndexingIterator"* %297, %"class.capnp::_::IndexingIterator"* %298, !dbg !11970
  %303 = getelementptr inbounds %"class.capnp::_::IndexingIterator", %"class.capnp::_::IndexingIterator"* %302, i64 0, i32 1
  %304 = load i32, i32* %303, align 8
  %305 = bitcast %"class.capnp::_::IndexingIterator"* %302 to i64*
  %306 = load i64, i64* %305, align 8
  %307 = bitcast { %"class.capnp::List<capnp::compiler::Token, capnp::Kind::STRUCT>::Reader"*, i32 }* %17 to i64*, !dbg !11957
  store i64 %306, i64* %307, align 8, !dbg !11957
  %308 = getelementptr inbounds { %"class.capnp::List<capnp::compiler::Token, capnp::Kind::STRUCT>::Reader"*, i32 }, { %"class.capnp::List<capnp::compiler::Token, capnp::Kind::STRUCT>::Reader"*, i32 }* %17, i64 0, i32 1, !dbg !11957
  store i32 %304, i32* %308, align 8, !dbg !11957
  %309 = getelementptr inbounds %"class.kj::parse::IteratorInput", %"class.kj::parse::IteratorInput"* %292, i64 0, i32 3, !dbg !11971
  call void @llvm.dbg.value(metadata %"class.capnp::_::IndexingIterator"* %295, i64 0, metadata !11972, metadata !8316) #10, !dbg !11980
  call void @llvm.dbg.value(metadata %"class.capnp::_::IndexingIterator"* %309, i64 0, metadata !11978, metadata !8316) #10, !dbg !11982
  call void @llvm.dbg.value(metadata %"class.capnp::_::IndexingIterator"* %295, i64 0, metadata !11808, metadata !8316) #10, !dbg !11983
  call void @llvm.dbg.value(metadata %"class.capnp::_::IndexingIterator"* %309, i64 0, metadata !11811, metadata !8316) #10, !dbg !11985
  %310 = getelementptr inbounds %"class.kj::parse::IteratorInput", %"class.kj::parse::IteratorInput"* %292, i64 0, i32 3, i32 1, !dbg !11986
  %311 = load i32, i32* %310, align 8, !dbg !11986, !tbaa !11816
  %312 = icmp ugt i32 %304, %311, !dbg !11987
  %313 = select i1 %312, %"class.capnp::_::IndexingIterator"* %295, %"class.capnp::_::IndexingIterator"* %309, !dbg !11988
  %314 = getelementptr inbounds %"class.capnp::_::IndexingIterator", %"class.capnp::_::IndexingIterator"* %313, i64 0, i32 1
  %315 = load i32, i32* %314, align 8
  %316 = bitcast %"class.capnp::_::IndexingIterator"* %313 to i64*
  %317 = load i64, i64* %316, align 8
  %318 = getelementptr inbounds %"class.kj::parse::IteratorInput", %"class.kj::parse::IteratorInput"* %292, i64 0, i32 3, i32 0, !dbg !11989
  %319 = bitcast %"class.capnp::List<capnp::compiler::Token, capnp::Kind::STRUCT>::Reader"** %318 to i64*, !dbg !11989
  store i64 %317, i64* %319, align 8, !dbg !11989
  store i32 %315, i32* %310, align 8, !dbg !11989
  call void @llvm.lifetime.end.p0i8(i64 16, i8* nonnull %296) #10, !dbg !11990
  br label %320, !dbg !11991

; <label>:320:                                    ; preds = %294, %291
  call void @llvm.lifetime.end.p0i8(i64 56, i8* nonnull %82) #10, !dbg !11558
  call void @llvm.lifetime.end.p0i8(i64 48, i8* nonnull %56) #10, !dbg !11558
  invoke void @_ZN5capnp8compiler11CapnpParserD1Ev(%"class.capnp::compiler::CapnpParser"* nonnull %28)
          to label %401 unwind label %124, !dbg !11558

; <label>:321:                                    ; preds = %289
  %322 = landingpad { i8*, i32 }
          cleanup, !dbg !11992
  %323 = extractvalue { i8*, i32 } %322, 0, !dbg !11992
  %324 = extractvalue { i8*, i32 } %322, 1, !dbg !11992
  br label %336, !dbg !11992

; <label>:325:                                    ; preds = %278, %250, %154, %138
  %326 = phi i32 [ %141, %138 ], [ %155, %154 ], [ %251, %250 ], [ %281, %278 ]
  %327 = phi i8* [ %140, %138 ], [ %156, %154 ], [ %252, %250 ], [ %280, %278 ]
  call void @llvm.dbg.value(metadata %"class.kj::_::NullableValue"* %31, i64 0, metadata !11510, metadata !8316), !dbg !11993
  %328 = load i8, i8* %94, align 8, !dbg !11995, !tbaa !11469, !range !8348
  %329 = icmp eq i8 %328, 0, !dbg !11995
  br i1 %329, label %336, label %330, !dbg !11996

; <label>:330:                                    ; preds = %325
  call void @llvm.dbg.value(metadata %"class.kj::_::NullableValue"* %31, i64 0, metadata !11522, metadata !11484), !dbg !11997
  call void @llvm.dbg.value(metadata %"class.kj::_::NullableValue"* %31, i64 0, metadata !11532, metadata !11484), !dbg !11999
  %331 = getelementptr inbounds %"class.kj::_::NullableValue", %"class.kj::_::NullableValue"* %31, i64 0, i32 1, i32 0, i32 0, i32 1, !dbg !12001
  %332 = load %"class.capnp::_::SegmentBuilder"*, %"class.capnp::_::SegmentBuilder"** %331, align 8, !dbg !12001, !tbaa !11940
  %333 = icmp eq %"class.capnp::_::SegmentBuilder"* %332, null, !dbg !12003
  br i1 %333, label %336, label %334, !dbg !12004

; <label>:334:                                    ; preds = %330
  %335 = getelementptr inbounds %"class.kj::_::NullableValue", %"class.kj::_::NullableValue"* %31, i64 0, i32 1, i32 0, i32 0, !dbg !12005
  invoke void @_ZN5capnp1_13OrphanBuilder9euthanizeEv(%"class.capnp::_::OrphanBuilder"* nonnull %335)
          to label %336 unwind label %398, !dbg !12006

; <label>:336:                                    ; preds = %334, %330, %325, %321, %132
  %337 = phi i32 [ %324, %321 ], [ %135, %132 ], [ %326, %334 ], [ %326, %325 ], [ %326, %330 ]
  %338 = phi i8* [ %323, %321 ], [ %134, %132 ], [ %327, %334 ], [ %327, %325 ], [ %327, %330 ]
  call void @llvm.lifetime.end.p0i8(i64 40, i8* nonnull %94) #10, !dbg !11440
  br label %354, !dbg !11440

; <label>:339:                                    ; preds = %81
  %340 = bitcast %"class.kj::_::Debug::Fault"* %35 to i8*, !dbg !12007
  call void @llvm.lifetime.start.p0i8(i64 8, i8* nonnull %340) #10, !dbg !12007
  invoke void @_ZN2kj1_5Debug5FaultC2INS_9Exception4TypeEJRA22_KcEEEPS6_iT_S9_S9_DpOT0_(%"class.kj::_::Debug::Fault"* nonnull %35, i8* getelementptr inbounds ([29 x i8], [29 x i8]* @.str, i64 0, i64 0), i32 87, i32 0, i8* null, i8* getelementptr inbounds ([24 x i8], [24 x i8]* @.str.7, i64 0, i64 0), [22 x i8]* nonnull dereferenceable(22) @.str.8)
          to label %341 unwind label %343, !dbg !12007

; <label>:341:                                    ; preds = %339
  invoke void @_ZN2kj1_5Debug5Fault5fatalEv(%"class.kj::_::Debug::Fault"* nonnull %35) #12
          to label %342 unwind label %347, !dbg !12008

; <label>:342:                                    ; preds = %341
  unreachable, !dbg !12008

; <label>:343:                                    ; preds = %339
  %344 = landingpad { i8*, i32 }
          cleanup, !dbg !12010
  %345 = extractvalue { i8*, i32 } %344, 0, !dbg !12010
  %346 = extractvalue { i8*, i32 } %344, 1, !dbg !12010
  br label %351, !dbg !12010

; <label>:347:                                    ; preds = %341
  %348 = landingpad { i8*, i32 }
          cleanup, !dbg !12011
  %349 = extractvalue { i8*, i32 } %348, 0, !dbg !12011
  %350 = extractvalue { i8*, i32 } %348, 1, !dbg !12011
  invoke void @_ZN2kj1_5Debug5FaultD1Ev(%"class.kj::_::Debug::Fault"* nonnull %35)
          to label %351 unwind label %398, !dbg !12008

; <label>:351:                                    ; preds = %347, %343
  %352 = phi i32 [ %350, %347 ], [ %346, %343 ]
  %353 = phi i8* [ %349, %347 ], [ %345, %343 ]
  call void @llvm.lifetime.end.p0i8(i64 8, i8* nonnull %340) #10, !dbg !12008
  br label %354, !dbg !12008

; <label>:354:                                    ; preds = %351, %336
  %355 = phi i32 [ %337, %336 ], [ %352, %351 ]
  %356 = phi i8* [ %338, %336 ], [ %353, %351 ]
  call void @llvm.dbg.value(metadata %"class.kj::parse::IteratorInput"* %30, i64 0, metadata !11149, metadata !8316), !dbg !11401
  call void @llvm.dbg.value(metadata %"class.kj::parse::IteratorInput"* %30, i64 0, metadata !11947, metadata !8316) #10, !dbg !12012
  %357 = load %"class.kj::parse::IteratorInput"*, %"class.kj::parse::IteratorInput"** %85, align 8, !dbg !12014, !tbaa !11413
  %358 = icmp eq %"class.kj::parse::IteratorInput"* %357, null, !dbg !12015
  br i1 %358, label %385, label %359, !dbg !12016

; <label>:359:                                    ; preds = %354
  %360 = bitcast { %"class.capnp::List<capnp::compiler::Token, capnp::Kind::STRUCT>::Reader"*, i32 }* %18 to %"class.capnp::_::IndexingIterator"*
  %361 = bitcast { %"class.capnp::List<capnp::compiler::Token, capnp::Kind::STRUCT>::Reader"*, i32 }* %18 to i8*, !dbg !12017
  call void @llvm.lifetime.start.p0i8(i64 16, i8* nonnull %361) #10, !dbg !12017
  %362 = getelementptr inbounds %"class.kj::parse::IteratorInput", %"class.kj::parse::IteratorInput"* %30, i64 0, i32 1, !dbg !12018
  %363 = getelementptr inbounds %"class.kj::parse::IteratorInput", %"class.kj::parse::IteratorInput"* %30, i64 0, i32 3, !dbg !12019
  call void @llvm.dbg.value(metadata %"class.capnp::_::IndexingIterator"* %362, i64 0, metadata !11796, metadata !8316) #10, !dbg !12020
  call void @llvm.dbg.value(metadata %"class.capnp::_::IndexingIterator"* %363, i64 0, metadata !11801, metadata !8316) #10, !dbg !12022
  call void @llvm.dbg.value(metadata %"class.capnp::_::IndexingIterator"* %362, i64 0, metadata !11808, metadata !8316) #10, !dbg !12023
  call void @llvm.dbg.value(metadata %"class.capnp::_::IndexingIterator"* %363, i64 0, metadata !11811, metadata !8316) #10, !dbg !12025
  %364 = load i32, i32* %87, align 8, !dbg !12026, !tbaa !11816
  %365 = load i32, i32* %91, align 8, !dbg !12027, !tbaa !11816
  %366 = icmp ugt i32 %364, %365, !dbg !12028
  %367 = select i1 %366, %"class.capnp::_::IndexingIterator"* %362, %"class.capnp::_::IndexingIterator"* %363, !dbg !12029
  %368 = getelementptr inbounds %"class.capnp::_::IndexingIterator", %"class.capnp::_::IndexingIterator"* %367, i64 0, i32 1
  %369 = load i32, i32* %368, align 8
  %370 = bitcast %"class.capnp::_::IndexingIterator"* %367 to i64*
  %371 = load i64, i64* %370, align 8
  %372 = bitcast { %"class.capnp::List<capnp::compiler::Token, capnp::Kind::STRUCT>::Reader"*, i32 }* %18 to i64*, !dbg !12017
  store i64 %371, i64* %372, align 8, !dbg !12017
  %373 = getelementptr inbounds { %"class.capnp::List<capnp::compiler::Token, capnp::Kind::STRUCT>::Reader"*, i32 }, { %"class.capnp::List<capnp::compiler::Token, capnp::Kind::STRUCT>::Reader"*, i32 }* %18, i64 0, i32 1, !dbg !12017
  store i32 %369, i32* %373, align 8, !dbg !12017
  %374 = getelementptr inbounds %"class.kj::parse::IteratorInput", %"class.kj::parse::IteratorInput"* %357, i64 0, i32 3, !dbg !12030
  call void @llvm.dbg.value(metadata %"class.capnp::_::IndexingIterator"* %360, i64 0, metadata !11972, metadata !8316) #10, !dbg !12031
  call void @llvm.dbg.value(metadata %"class.capnp::_::IndexingIterator"* %374, i64 0, metadata !11978, metadata !8316) #10, !dbg !12033
  call void @llvm.dbg.value(metadata %"class.capnp::_::IndexingIterator"* %360, i64 0, metadata !11808, metadata !8316) #10, !dbg !12034
  call void @llvm.dbg.value(metadata %"class.capnp::_::IndexingIterator"* %374, i64 0, metadata !11811, metadata !8316) #10, !dbg !12036
  %375 = getelementptr inbounds %"class.kj::parse::IteratorInput", %"class.kj::parse::IteratorInput"* %357, i64 0, i32 3, i32 1, !dbg !12037
  %376 = load i32, i32* %375, align 8, !dbg !12037, !tbaa !11816
  %377 = icmp ugt i32 %369, %376, !dbg !12038
  %378 = select i1 %377, %"class.capnp::_::IndexingIterator"* %360, %"class.capnp::_::IndexingIterator"* %374, !dbg !12039
  %379 = getelementptr inbounds %"class.capnp::_::IndexingIterator", %"class.capnp::_::IndexingIterator"* %378, i64 0, i32 1
  %380 = load i32, i32* %379, align 8
  %381 = bitcast %"class.capnp::_::IndexingIterator"* %378 to i64*
  %382 = load i64, i64* %381, align 8
  %383 = getelementptr inbounds %"class.kj::parse::IteratorInput", %"class.kj::parse::IteratorInput"* %357, i64 0, i32 3, i32 0, !dbg !12040
  %384 = bitcast %"class.capnp::List<capnp::compiler::Token, capnp::Kind::STRUCT>::Reader"** %383 to i64*, !dbg !12040
  store i64 %382, i64* %384, align 8, !dbg !12040
  store i32 %380, i32* %375, align 8, !dbg !12040
  call void @llvm.lifetime.end.p0i8(i64 16, i8* nonnull %361) #10, !dbg !12041
  br label %385, !dbg !12042

; <label>:385:                                    ; preds = %359, %354
  call void @llvm.lifetime.end.p0i8(i64 56, i8* nonnull %82) #10, !dbg !11558
  br label %386, !dbg !11558

; <label>:386:                                    ; preds = %385, %128
  %387 = phi i32 [ %355, %385 ], [ %131, %128 ]
  %388 = phi i8* [ %356, %385 ], [ %130, %128 ]
  call void @llvm.lifetime.end.p0i8(i64 48, i8* nonnull %56) #10, !dbg !11558
  invoke void @_ZN5capnp8compiler11CapnpParserD1Ev(%"class.capnp::compiler::CapnpParser"* nonnull %28)
          to label %389 unwind label %398, !dbg !11558

; <label>:389:                                    ; preds = %386, %124
  %390 = phi i32 [ %127, %124 ], [ %387, %386 ]
  %391 = phi i8* [ %126, %124 ], [ %388, %386 ]
  call void @llvm.lifetime.end.p0i8(i64 408, i8* nonnull %50) #10, !dbg !11558
  br label %392, !dbg !11558

; <label>:392:                                    ; preds = %389, %120
  %393 = phi i32 [ %390, %389 ], [ %123, %120 ]
  %394 = phi i8* [ %391, %389 ], [ %122, %120 ]
  call void @llvm.lifetime.end.p0i8(i64 40, i8* nonnull %39) #10, !dbg !11558
  invoke void @_ZN5capnp20MallocMessageBuilderD1Ev(%"class.capnp::MallocMessageBuilder"* nonnull %26)
          to label %395 unwind label %398, !dbg !11558

; <label>:395:                                    ; preds = %392
  call void @llvm.lifetime.end.p0i8(i64 224, i8* nonnull %38) #10, !dbg !11558
  call void @llvm.lifetime.end.p0i8(i64 8, i8* nonnull %36) #10, !dbg !11558
  %396 = insertvalue { i8*, i32 } undef, i8* %394, 0, !dbg !11558
  %397 = insertvalue { i8*, i32 } %396, i32 %393, 1, !dbg !11558
  resume { i8*, i32 } %397, !dbg !11558

; <label>:398:                                    ; preds = %392, %386, %347, %334, %246, %150
  %399 = landingpad { i8*, i32 }
          catch i8* null, !dbg !11441
  %400 = extractvalue { i8*, i32 } %399, 0, !dbg !11441
  call void @__clang_call_terminate(i8* %400) #11, !dbg !11441
  unreachable, !dbg !11441

; <label>:401:                                    ; preds = %320
  call void @llvm.lifetime.end.p0i8(i64 408, i8* nonnull %50) #10, !dbg !11558
  call void @llvm.lifetime.end.p0i8(i64 40, i8* nonnull %39) #10, !dbg !11558
  call void @llvm.dbg.value(metadata %"class.capnp::MallocMessageBuilder"* %26, i64 0, metadata !9594, metadata !8316), !dbg !11180
  call void @_ZN5capnp20MallocMessageBuilderD1Ev(%"class.capnp::MallocMessageBuilder"* nonnull %26), !dbg !11558
  call void @llvm.lifetime.end.p0i8(i64 224, i8* nonnull %38) #10, !dbg !11558
  call void @llvm.lifetime.end.p0i8(i64 8, i8* nonnull %36) #10, !dbg !11558
  ret void, !dbg !12043
}

; Function Attrs: argmemonly nounwind
declare void @llvm.memcpy.p0i8.p0i8.i64(i8* nocapture writeonly, i8* nocapture readonly, i64, i32, i1) #4

; Function Attrs: uwtable
define void @_ZNK5capnp9TextCodec6decodeEN2kj9StringPtrENS_4TypeENS_9OrphanageE(%"class.capnp::Orphan"* noalias sret, %"class.capnp::TextCodec"* nocapture readnone, i8*, i64, i64, %"struct.capnp::_::RawBrandedSchema"*, %"class.capnp::Orphanage"* byval align 8) local_unnamed_addr #3 align 2 personality i8* bitcast (i32 (...)* @__gxx_personality_v0 to i8*) !dbg !12044 {
  %8 = alloca %"class.capnp::_::StructReader", align 8
  %9 = alloca %"class.(anonymous namespace)::ThrowingErrorReporter", align 8
  %10 = alloca %"class.(anonymous namespace)::ExternalResolver", align 8
  %11 = alloca %"class.capnp::compiler::ValueTranslator", align 8
  %12 = alloca %"class.kj::_::NullableValue.28", align 8
  %13 = alloca %"class.kj::Maybe.30", align 8
  %14 = alloca %"class.capnp::_::StructReader", align 8
  %15 = alloca { %"class.capnp::List<capnp::compiler::Token, capnp::Kind::STRUCT>::Reader"*, i32 }, align 8
  %16 = alloca { %"class.capnp::List<capnp::compiler::Token, capnp::Kind::STRUCT>::Reader"*, i32 }, align 8
  %17 = alloca %"class.capnp::_::ListReader", align 8
  %18 = alloca %"class.capnp::_::PointerReader", align 16
  %19 = alloca %"class.capnp::_::StructReader", align 16
  %20 = alloca %"class.capnp::_::StructBuilder", align 8
  %21 = alloca %"class.capnp::_::PointerBuilder", align 8
  %22 = alloca %"class.capnp::AnyPointer::Builder", align 8
  %23 = alloca %"class.(anonymous namespace)::ThrowingErrorReporter", align 8
  %24 = alloca %"class.capnp::MallocMessageBuilder", align 8
  %25 = alloca %"class.capnp::compiler::LexedTokens::Builder", align 8
  %26 = alloca %"class.capnp::compiler::CapnpParser", align 8
  %27 = alloca %"class.capnp::List<capnp::compiler::Token, capnp::Kind::STRUCT>::Reader", align 8
  %28 = alloca %"class.kj::parse::IteratorInput", align 8
  %29 = alloca %"class.kj::_::NullableValue", align 8
  %30 = alloca %"class.kj::Maybe.15", align 8
  %31 = alloca %"class.kj::_::Debug::Fault", align 8
  %32 = alloca [48 x i8], align 8
  %33 = alloca %"class.kj::_::Debug::Fault", align 8
  %34 = alloca %"class.kj::_::Debug::Fault", align 8
  tail call void @llvm.dbg.declare(metadata %class.anon.7* undef, metadata !12051, metadata !8316), !dbg !12094
  tail call void @llvm.dbg.value(metadata i8* %2, i64 0, metadata !12047, metadata !8945), !dbg !12096
  tail call void @llvm.dbg.value(metadata i64 %3, i64 0, metadata !12047, metadata !8947), !dbg !12096
  tail call void @llvm.dbg.value(metadata %"class.capnp::TextCodec"* %1, i64 0, metadata !12046, metadata !8316), !dbg !12097
  tail call void @llvm.dbg.declare(metadata %"class.kj::StringPtr"* undef, metadata !12047, metadata !8316), !dbg !12096
  tail call void @llvm.dbg.declare(metadata %"class.capnp::Orphanage"* %6, metadata !12049, metadata !8316), !dbg !12098
  tail call void @llvm.dbg.declare(metadata %"class.capnp::Orphan"* %0, metadata !12050, metadata !8316), !dbg !12099
  tail call void @llvm.dbg.value(metadata %"class.capnp::Orphan"* %0, i64 0, metadata !12100, metadata !8316), !dbg !12104
  tail call void @llvm.dbg.value(metadata i8* null, i64 0, metadata !12103, metadata !8316), !dbg !12106
  %35 = getelementptr inbounds %"class.capnp::Orphan", %"class.capnp::Orphan"* %0, i64 0, i32 0, !dbg !12107
  store i32 0, i32* %35, align 8, !dbg !12107, !tbaa !12108
  %36 = getelementptr inbounds %"class.capnp::Orphan", %"class.capnp::Orphan"* %0, i64 0, i32 2, !dbg !12110
  tail call void @llvm.dbg.value(metadata %"class.capnp::_::OrphanBuilder"* %36, i64 0, metadata !12111, metadata !8316) #10, !dbg !12114
  %37 = bitcast %"class.capnp::_::OrphanBuilder"* %36 to i8*, !dbg !12116
  tail call void @llvm.memset.p0i8.i64(i8* %37, i8 0, i64 32, i32 8, i1 false) #10, !dbg !12117
  %38 = getelementptr inbounds [48 x i8], [48 x i8]* %32, i64 0, i64 0
  call void @llvm.lifetime.start.p0i8(i64 48, i8* nonnull %38)
  tail call void @llvm.dbg.value(metadata %"class.capnp::Type"* undef, i64 0, metadata !12051, metadata !8945), !dbg !12094
  tail call void @llvm.dbg.value(metadata %"class.capnp::Orphanage"* %6, i64 0, metadata !12051, metadata !8947), !dbg !12094
  tail call void @llvm.dbg.value(metadata %"class.capnp::Orphan"* %0, i64 0, metadata !12051, metadata !11601), !dbg !12094
  %39 = bitcast %"class.(anonymous namespace)::ThrowingErrorReporter"* %23 to i8*, !dbg !12119
  call void @llvm.lifetime.start.p0i8(i64 8, i8* nonnull %39) #10, !dbg !12119
  tail call void @llvm.dbg.value(metadata %"class.(anonymous namespace)::ThrowingErrorReporter"* %23, i64 0, metadata !12069, metadata !8316), !dbg !12120
  tail call void @llvm.dbg.value(metadata %"class.(anonymous namespace)::ThrowingErrorReporter"* %23, i64 0, metadata !11169, metadata !8316), !dbg !12121
  %40 = getelementptr inbounds %"class.(anonymous namespace)::ThrowingErrorReporter", %"class.(anonymous namespace)::ThrowingErrorReporter"* %23, i64 0, i32 0, i32 0, !dbg !12123
  store i32 (...)** bitcast (i8** getelementptr inbounds ({ [4 x i8*] }, { [4 x i8*] }* @_ZTVN12_GLOBAL__N_121ThrowingErrorReporterE, i64 0, inrange i32 0, i64 2) to i32 (...)**), i32 (...)*** %40, align 8, !dbg !12123, !tbaa !8460
  %41 = bitcast %"class.capnp::MallocMessageBuilder"* %24 to i8*, !dbg !12124
  call void @llvm.lifetime.start.p0i8(i64 224, i8* nonnull %41) #10, !dbg !12124
  tail call void @llvm.dbg.value(metadata %"class.capnp::MallocMessageBuilder"* %24, i64 0, metadata !12070, metadata !8316), !dbg !12125
  invoke void @_ZN5capnp20MallocMessageBuilderC1EjNS_18AllocationStrategyE(%"class.capnp::MallocMessageBuilder"* nonnull %24, i32 1024, i8 zeroext 1)
          to label %42 unwind label %407, !dbg !12125

; <label>:42:                                     ; preds = %7
  %43 = bitcast %"class.capnp::compiler::LexedTokens::Builder"* %25 to i8*, !dbg !12126
  call void @llvm.lifetime.start.p0i8(i64 40, i8* nonnull %43) #10, !dbg !12126
  %44 = bitcast %"class.capnp::MallocMessageBuilder"* %24 to %"class.capnp::MessageBuilder"*, !dbg !12127
  call void @llvm.dbg.value(metadata %"class.capnp::MessageBuilder"* %44, i64 0, metadata !11183, metadata !8316), !dbg !12128
  %45 = bitcast %"class.capnp::AnyPointer::Builder"* %22 to i8*, !dbg !12130
  call void @llvm.lifetime.start.p0i8(i64 24, i8* nonnull %45) #10, !dbg !12130, !noalias !12131
  invoke void @_ZN5capnp14MessageBuilder15getRootInternalEv(%"class.capnp::AnyPointer::Builder"* nonnull sret %22, %"class.capnp::MessageBuilder"* nonnull %44)
          to label %46 unwind label %124, !dbg !12130

; <label>:46:                                     ; preds = %42
  call void @llvm.dbg.value(metadata %"class.capnp::AnyPointer::Builder"* %22, i64 0, metadata !11200, metadata !8316), !dbg !12134
  %47 = bitcast %"class.capnp::_::PointerBuilder"* %21 to i8*
  call void @llvm.lifetime.start.p0i8(i64 24, i8* nonnull %47), !noalias !12136
  %48 = bitcast %"class.capnp::_::StructBuilder"* %20 to i8*
  call void @llvm.lifetime.start.p0i8(i64 40, i8* nonnull %48), !noalias !12136
  call void @llvm.memcpy.p0i8.p0i8.i64(i8* nonnull %47, i8* nonnull %45, i64 24, i32 8, i1 false), !noalias !12136
  call void @llvm.dbg.value(metadata %"class.capnp::_::PointerBuilder"* %21, i64 0, metadata !11218, metadata !8316), !dbg !12139
  invoke void @_ZN5capnp1_14PointerBuilder10initStructENS0_10StructSizeE(%"class.capnp::_::StructBuilder"* nonnull sret %20, %"class.capnp::_::PointerBuilder"* nonnull %21, i32 65536)
          to label %49 unwind label %124, !dbg !12141

; <label>:49:                                     ; preds = %46
  call void @llvm.memcpy.p0i8.p0i8.i64(i8* nonnull %43, i8* nonnull %48, i64 40, i32 8, i1 false) #10, !dbg !12142
  call void @llvm.dbg.value(metadata %"class.capnp::compiler::LexedTokens::Builder"* %25, i64 0, metadata !11261, metadata !8316) #10, !dbg !12142
  call void @llvm.lifetime.end.p0i8(i64 24, i8* nonnull %47), !dbg !12144, !noalias !12136
  call void @llvm.lifetime.end.p0i8(i64 40, i8* nonnull %48), !dbg !12144, !noalias !12136
  call void @llvm.lifetime.end.p0i8(i64 24, i8* nonnull %45) #10, !dbg !12145, !noalias !12131
  call void @llvm.dbg.value(metadata %"class.kj::StringPtr"* undef, i64 0, metadata !11267, metadata !8316), !dbg !12146
  %50 = add i64 %3, -1, !dbg !12148
  %51 = getelementptr inbounds %"class.(anonymous namespace)::ThrowingErrorReporter", %"class.(anonymous namespace)::ThrowingErrorReporter"* %23, i64 0, i32 0, !dbg !12149
  %52 = invoke zeroext i1 @_ZN5capnp8compiler3lexEN2kj8ArrayPtrIKcEENS0_11LexedTokens7BuilderERNS0_13ErrorReporterE(i8* %2, i64 %50, %"class.capnp::compiler::LexedTokens::Builder"* byval nonnull align 8 %25, %"class.capnp::compiler::ErrorReporter"* nonnull dereferenceable(8) %51)
          to label %53 unwind label %124, !dbg !12150

; <label>:53:                                     ; preds = %49
  %54 = bitcast %"class.capnp::compiler::CapnpParser"* %26 to i8*, !dbg !12151
  call void @llvm.lifetime.start.p0i8(i64 408, i8* nonnull %54) #10, !dbg !12151
  %55 = invoke { %"class.capnp::_::BuilderArena"*, %"class.capnp::_::CapTableBuilder"* } @_ZN5capnp14MessageBuilder12getOrphanageEv(%"class.capnp::MessageBuilder"* nonnull %44)
          to label %56 unwind label %128, !dbg !12152

; <label>:56:                                     ; preds = %53
  %57 = extractvalue { %"class.capnp::_::BuilderArena"*, %"class.capnp::_::CapTableBuilder"* } %55, 0, !dbg !12152
  %58 = extractvalue { %"class.capnp::_::BuilderArena"*, %"class.capnp::_::CapTableBuilder"* } %55, 1, !dbg !12152
  invoke void @_ZN5capnp8compiler11CapnpParserC1ENS_9OrphanageERNS0_13ErrorReporterE(%"class.capnp::compiler::CapnpParser"* nonnull %26, %"class.capnp::_::BuilderArena"* %57, %"class.capnp::_::CapTableBuilder"* %58, %"class.capnp::compiler::ErrorReporter"* nonnull dereferenceable(8) %51)
          to label %59 unwind label %128, !dbg !12153

; <label>:59:                                     ; preds = %56
  %60 = bitcast %"class.capnp::List<capnp::compiler::Token, capnp::Kind::STRUCT>::Reader"* %27 to i8*, !dbg !12154
  call void @llvm.lifetime.start.p0i8(i64 48, i8* nonnull %60) #10, !dbg !12154
  call void @llvm.dbg.value(metadata %"class.capnp::compiler::LexedTokens::Builder"* %25, i64 0, metadata !11280, metadata !8316), !dbg !12155
  %61 = bitcast %"class.capnp::_::StructReader"* %19 to i8*, !dbg !12157
  call void @llvm.lifetime.start.p0i8(i64 48, i8* nonnull %61), !dbg !12157, !noalias !12159
  call void @llvm.dbg.value(metadata %"class.capnp::compiler::LexedTokens::Builder"* %25, i64 0, metadata !11289, metadata !8316), !dbg !12157
  %62 = getelementptr inbounds %"class.capnp::compiler::LexedTokens::Builder", %"class.capnp::compiler::LexedTokens::Builder"* %25, i64 0, i32 0, !dbg !12162
  invoke void @_ZNK5capnp1_13StructBuilder8asReaderEv(%"class.capnp::_::StructReader"* nonnull sret %19, %"class.capnp::_::StructBuilder"* nonnull %62)
          to label %63 unwind label %132, !dbg !12163

; <label>:63:                                     ; preds = %59
  %64 = bitcast %"class.capnp::_::StructReader"* %19 to <2 x i64>*, !dbg !12164
  %65 = load <2 x i64>, <2 x i64>* %64, align 16, !dbg !12164
  %66 = getelementptr inbounds %"class.capnp::_::StructReader", %"class.capnp::_::StructReader"* %19, i64 0, i32 3, !dbg !12164
  %67 = bitcast %"struct.capnp::_::WirePointer"** %66 to %"class.capnp::word"**, !dbg !12164
  %68 = load %"class.capnp::word"*, %"class.capnp::word"** %67, align 8, !dbg !12164
  %69 = getelementptr inbounds %"class.capnp::_::StructReader", %"class.capnp::_::StructReader"* %19, i64 0, i32 5, !dbg !12164
  %70 = load i16, i16* %69, align 4, !dbg !12164
  %71 = getelementptr inbounds %"class.capnp::_::StructReader", %"class.capnp::_::StructReader"* %19, i64 0, i32 7, !dbg !12164
  %72 = load i32, i32* %71, align 8, !dbg !12164
  call void @llvm.dbg.value(metadata %"class.capnp::compiler::LexedTokens::Reader"* undef, i64 0, metadata !11299, metadata !8316) #10, !dbg !12164
  call void @llvm.lifetime.end.p0i8(i64 48, i8* nonnull %61), !dbg !12166, !noalias !12159
  call void @llvm.dbg.value(metadata %"class.capnp::compiler::LexedTokens::Reader"* undef, i64 0, metadata !11304, metadata !8316), !dbg !12167
  call void @llvm.dbg.value(metadata %"class.capnp::compiler::LexedTokens::Reader"* undef, i64 0, metadata !11310, metadata !8475), !dbg !12169
  call void @llvm.dbg.value(metadata i32 0, i64 0, metadata !11313, metadata !8316), !dbg !12171
  %73 = icmp eq i16 %70, 0, !dbg !12172
  %74 = select i1 %73, %"class.capnp::word"* null, %"class.capnp::word"* %68, !dbg !12173
  %75 = insertelement <2 x i1> undef, i1 %73, i32 0
  %76 = shufflevector <2 x i1> %75, <2 x i1> undef, <2 x i32> zeroinitializer, !dbg !12173
  %77 = select <2 x i1> %76, <2 x i64> zeroinitializer, <2 x i64> %65, !dbg !12173
  %78 = select i1 %73, i32 2147483647, i32 %72, !dbg !12173
  %79 = bitcast %"class.capnp::_::PointerReader"* %18 to i8*
  call void @llvm.lifetime.start.p0i8(i64 32, i8* nonnull %79), !noalias !12174
  %80 = bitcast %"class.capnp::_::ListReader"* %17 to i8*
  call void @llvm.lifetime.start.p0i8(i64 48, i8* nonnull %80), !noalias !12174
  %81 = bitcast %"class.capnp::_::PointerReader"* %18 to <2 x i64>*
  store <2 x i64> %77, <2 x i64>* %81, align 16, !noalias !12174
  %82 = getelementptr inbounds %"class.capnp::_::PointerReader", %"class.capnp::_::PointerReader"* %18, i64 0, i32 2
  %83 = bitcast %"struct.capnp::_::WirePointer"** %82 to %"class.capnp::word"**
  store %"class.capnp::word"* %74, %"class.capnp::word"** %83, align 16, !noalias !12174
  %84 = getelementptr inbounds %"class.capnp::_::PointerReader", %"class.capnp::_::PointerReader"* %18, i64 0, i32 3
  store i32 %78, i32* %84, align 8, !noalias !12174
  call void @llvm.dbg.value(metadata %"class.capnp::word"* null, i64 0, metadata !11324, metadata !8316), !dbg !12177
  call void @llvm.dbg.value(metadata %"class.capnp::_::PointerReader"* %18, i64 0, metadata !11362, metadata !8316), !dbg !12179
  call void @llvm.dbg.value(metadata %"class.capnp::word"* null, i64 0, metadata !11365, metadata !8316), !dbg !12181
  call void @llvm.dbg.value(metadata %"class.capnp::_::PointerReader"* %18, i64 0, metadata !11359, metadata !8316), !dbg !12182
  invoke void @_ZNK5capnp1_13PointerReader7getListENS_11ElementSizeEPKNS_4wordE(%"class.capnp::_::ListReader"* nonnull sret %17, %"class.capnp::_::PointerReader"* nonnull %18, i8 zeroext 7, %"class.capnp::word"* null)
          to label %85 unwind label %132, !dbg !12183

; <label>:85:                                     ; preds = %63
  call void @llvm.memcpy.p0i8.p0i8.i64(i8* nonnull %60, i8* nonnull %80, i64 48, i32 8, i1 false) #10, !dbg !12184
  call void @llvm.dbg.value(metadata %"class.capnp::List<capnp::compiler::Token, capnp::Kind::STRUCT>::Reader"* %27, i64 0, metadata !11374, metadata !8316) #10, !dbg !12184
  call void @llvm.lifetime.end.p0i8(i64 32, i8* nonnull %79), !dbg !12186, !noalias !12174
  call void @llvm.lifetime.end.p0i8(i64 48, i8* nonnull %80), !dbg !12186, !noalias !12174
  %86 = bitcast %"class.kj::parse::IteratorInput"* %28 to i8*, !dbg !12187
  call void @llvm.lifetime.start.p0i8(i64 56, i8* nonnull %86) #10, !dbg !12187
  call void @llvm.dbg.value(metadata %"class.capnp::List<capnp::compiler::Token, capnp::Kind::STRUCT>::Reader"* %27, i64 0, metadata !11380, metadata !8316), !dbg !12188
  call void @llvm.dbg.value(metadata %"class.capnp::List<capnp::compiler::Token, capnp::Kind::STRUCT>::Reader"* %27, i64 0, metadata !11385, metadata !8316), !dbg !12190
  call void @llvm.dbg.value(metadata %"class.capnp::List<capnp::compiler::Token, capnp::Kind::STRUCT>::Reader"* %27, i64 0, metadata !11390, metadata !8475), !dbg !12192
  %87 = getelementptr inbounds %"class.capnp::List<capnp::compiler::Token, capnp::Kind::STRUCT>::Reader", %"class.capnp::List<capnp::compiler::Token, capnp::Kind::STRUCT>::Reader"* %27, i64 0, i32 0, i32 3, !dbg !12194
  %88 = load i32, i32* %87, align 8, !dbg !12194, !tbaa !11396
  call void @llvm.dbg.value(metadata %"class.kj::parse::IteratorInput"* %28, i64 0, metadata !12074, metadata !8316), !dbg !12195
  call void @llvm.dbg.value(metadata %"class.capnp::List<capnp::compiler::Token, capnp::Kind::STRUCT>::Reader"* %27, i64 0, metadata !11402, metadata !8945), !dbg !12196
  call void @llvm.dbg.value(metadata i32 0, i64 0, metadata !11402, metadata !11409), !dbg !12196
  call void @llvm.dbg.value(metadata %"class.capnp::List<capnp::compiler::Token, capnp::Kind::STRUCT>::Reader"* %27, i64 0, metadata !11406, metadata !8945), !dbg !12198
  call void @llvm.dbg.value(metadata i32 %88, i64 0, metadata !11406, metadata !11409), !dbg !12198
  call void @llvm.dbg.value(metadata %"class.kj::parse::IteratorInput"* %28, i64 0, metadata !11405, metadata !8316), !dbg !12199
  call void @llvm.dbg.declare(metadata %"class.capnp::_::IndexingIterator"* undef, metadata !11402, metadata !8316), !dbg !12196
  call void @llvm.dbg.declare(metadata %"class.capnp::_::IndexingIterator"* undef, metadata !11406, metadata !8316), !dbg !12198
  %89 = getelementptr inbounds %"class.kj::parse::IteratorInput", %"class.kj::parse::IteratorInput"* %28, i64 0, i32 0, !dbg !12200
  store %"class.kj::parse::IteratorInput"* null, %"class.kj::parse::IteratorInput"** %89, align 8, !dbg !12200, !tbaa !11413
  %90 = getelementptr inbounds %"class.kj::parse::IteratorInput", %"class.kj::parse::IteratorInput"* %28, i64 0, i32 1, i32 0, !dbg !12201
  store %"class.capnp::List<capnp::compiler::Token, capnp::Kind::STRUCT>::Reader"* %27, %"class.capnp::List<capnp::compiler::Token, capnp::Kind::STRUCT>::Reader"** %90, align 8, !dbg !12201
  %91 = getelementptr inbounds %"class.kj::parse::IteratorInput", %"class.kj::parse::IteratorInput"* %28, i64 0, i32 1, i32 1, !dbg !12201
  store i32 0, i32* %91, align 8, !dbg !12201
  %92 = getelementptr inbounds %"class.kj::parse::IteratorInput", %"class.kj::parse::IteratorInput"* %28, i64 0, i32 2, i32 0, !dbg !12202
  store %"class.capnp::List<capnp::compiler::Token, capnp::Kind::STRUCT>::Reader"* %27, %"class.capnp::List<capnp::compiler::Token, capnp::Kind::STRUCT>::Reader"** %92, align 8, !dbg !12202
  %93 = getelementptr inbounds %"class.kj::parse::IteratorInput", %"class.kj::parse::IteratorInput"* %28, i64 0, i32 2, i32 1, !dbg !12202
  store i32 %88, i32* %93, align 8, !dbg !12202
  %94 = getelementptr inbounds %"class.kj::parse::IteratorInput", %"class.kj::parse::IteratorInput"* %28, i64 0, i32 3, i32 0, !dbg !12203
  store %"class.capnp::List<capnp::compiler::Token, capnp::Kind::STRUCT>::Reader"* %27, %"class.capnp::List<capnp::compiler::Token, capnp::Kind::STRUCT>::Reader"** %94, align 8, !dbg !12203
  %95 = getelementptr inbounds %"class.kj::parse::IteratorInput", %"class.kj::parse::IteratorInput"* %28, i64 0, i32 3, i32 1, !dbg !12203
  store i32 0, i32* %95, align 8, !dbg !12203
  call void @llvm.dbg.value(metadata %"class.kj::parse::IteratorInput"* %28, i64 0, metadata !12074, metadata !8316), !dbg !12195
  call void @llvm.dbg.value(metadata %"class.kj::parse::IteratorInput"* %28, i64 0, metadata !11419, metadata !8316), !dbg !12204
  call void @llvm.dbg.value(metadata %"class.capnp::List<capnp::compiler::Token, capnp::Kind::STRUCT>::Reader"* %27, i64 0, metadata !11380, metadata !8316), !dbg !12206
  call void @llvm.dbg.value(metadata %"class.capnp::List<capnp::compiler::Token, capnp::Kind::STRUCT>::Reader"* %27, i64 0, metadata !11385, metadata !8316), !dbg !12208
  call void @llvm.dbg.value(metadata %"class.capnp::List<capnp::compiler::Token, capnp::Kind::STRUCT>::Reader"* %27, i64 0, metadata !11390, metadata !8475), !dbg !12210
  call void @llvm.dbg.value(metadata %"class.capnp::_::IndexingIterator"* undef, i64 0, metadata !11430, metadata !8316), !dbg !12212
  call void @llvm.dbg.value(metadata %"class.capnp::_::IndexingIterator"* undef, i64 0, metadata !11433, metadata !8316), !dbg !12214
  %96 = icmp eq i32 %88, 0, !dbg !12215
  br i1 %96, label %344, label %97, !dbg !12216

; <label>:97:                                     ; preds = %85
  %98 = getelementptr inbounds %"class.kj::_::NullableValue", %"class.kj::_::NullableValue"* %29, i64 0, i32 0, !dbg !12217
  call void @llvm.lifetime.start.p0i8(i64 40, i8* nonnull %98) #10, !dbg !12217
  %99 = getelementptr inbounds %"class.kj::Maybe.15", %"class.kj::Maybe.15"* %30, i64 0, i32 0, i32 0, !dbg !12218
  call void @llvm.lifetime.start.p0i8(i64 40, i8* nonnull %99) #10, !dbg !12218
  call void @llvm.dbg.value(metadata %"class.capnp::compiler::CapnpParser"* %26, i64 0, metadata !12072, metadata !8316), !dbg !12153
  call void @llvm.dbg.value(metadata %"class.capnp::compiler::CapnpParser"* %26, i64 0, metadata !11442, metadata !11447), !dbg !12219
  call void @llvm.dbg.value(metadata %"class.kj::parse::IteratorInput"* %28, i64 0, metadata !11445, metadata !8316), !dbg !12221
  %100 = getelementptr inbounds %"class.capnp::compiler::CapnpParser", %"class.capnp::compiler::CapnpParser"* %26, i64 0, i32 3, i32 5, i32 1, !dbg !12222
  %101 = load %"struct.kj::parse::ParserRef<kj::parse::IteratorInput<capnp::compiler::Token::Reader, capnp::_::IndexingIterator<const capnp::List<capnp::compiler::Token, capnp::Kind::STRUCT>::Reader, capnp::compiler::Token::Reader> >, capnp::Orphan<capnp::compiler::Expression> >::Wrapper"*, %"struct.kj::parse::ParserRef<kj::parse::IteratorInput<capnp::compiler::Token::Reader, capnp::_::IndexingIterator<const capnp::List<capnp::compiler::Token, capnp::Kind::STRUCT>::Reader, capnp::compiler::Token::Reader> >, capnp::Orphan<capnp::compiler::Expression> >::Wrapper"** %100, align 8, !dbg !12222, !tbaa !11452, !noalias !12223
  %102 = bitcast %"struct.kj::parse::ParserRef<kj::parse::IteratorInput<capnp::compiler::Token::Reader, capnp::_::IndexingIterator<const capnp::List<capnp::compiler::Token, capnp::Kind::STRUCT>::Reader, capnp::compiler::Token::Reader> >, capnp::Orphan<capnp::compiler::Expression> >::Wrapper"* %101 to void (%"class.kj::Maybe.15"*, %"struct.kj::parse::ParserRef<kj::parse::IteratorInput<capnp::compiler::Token::Reader, capnp::_::IndexingIterator<const capnp::List<capnp::compiler::Token, capnp::Kind::STRUCT>::Reader, capnp::compiler::Token::Reader> >, capnp::Orphan<capnp::compiler::Expression> >::Wrapper"*, i8*, %"class.kj::parse::IteratorInput"*)***, !dbg !12226
  %103 = load void (%"class.kj::Maybe.15"*, %"struct.kj::parse::ParserRef<kj::parse::IteratorInput<capnp::compiler::Token::Reader, capnp::_::IndexingIterator<const capnp::List<capnp::compiler::Token, capnp::Kind::STRUCT>::Reader, capnp::compiler::Token::Reader> >, capnp::Orphan<capnp::compiler::Expression> >::Wrapper"*, i8*, %"class.kj::parse::IteratorInput"*)**, void (%"class.kj::Maybe.15"*, %"struct.kj::parse::ParserRef<kj::parse::IteratorInput<capnp::compiler::Token::Reader, capnp::_::IndexingIterator<const capnp::List<capnp::compiler::Token, capnp::Kind::STRUCT>::Reader, capnp::compiler::Token::Reader> >, capnp::Orphan<capnp::compiler::Expression> >::Wrapper"*, i8*, %"class.kj::parse::IteratorInput"*)*** %102, align 8, !dbg !12226, !tbaa !8460, !noalias !12223
  %104 = load void (%"class.kj::Maybe.15"*, %"struct.kj::parse::ParserRef<kj::parse::IteratorInput<capnp::compiler::Token::Reader, capnp::_::IndexingIterator<const capnp::List<capnp::compiler::Token, capnp::Kind::STRUCT>::Reader, capnp::compiler::Token::Reader> >, capnp::Orphan<capnp::compiler::Expression> >::Wrapper"*, i8*, %"class.kj::parse::IteratorInput"*)*, void (%"class.kj::Maybe.15"*, %"struct.kj::parse::ParserRef<kj::parse::IteratorInput<capnp::compiler::Token::Reader, capnp::_::IndexingIterator<const capnp::List<capnp::compiler::Token, capnp::Kind::STRUCT>::Reader, capnp::compiler::Token::Reader> >, capnp::Orphan<capnp::compiler::Expression> >::Wrapper"*, i8*, %"class.kj::parse::IteratorInput"*)** %103, align 8, !dbg !12226, !noalias !12223
  %105 = getelementptr inbounds %"class.capnp::compiler::CapnpParser", %"class.capnp::compiler::CapnpParser"* %26, i64 0, i32 3, i32 5, i32 0, !dbg !12227
  %106 = load i8*, i8** %105, align 8, !dbg !12227, !tbaa !11459, !noalias !12223
  invoke void %104(%"class.kj::Maybe.15"* nonnull sret %30, %"struct.kj::parse::ParserRef<kj::parse::IteratorInput<capnp::compiler::Token::Reader, capnp::_::IndexingIterator<const capnp::List<capnp::compiler::Token, capnp::Kind::STRUCT>::Reader, capnp::compiler::Token::Reader> >, capnp::Orphan<capnp::compiler::Expression> >::Wrapper"* %101, i8* %106, %"class.kj::parse::IteratorInput"* nonnull dereferenceable(56) %28)
          to label %107 unwind label %136, !dbg !12226

; <label>:107:                                    ; preds = %97
  call void @llvm.dbg.value(metadata %"class.kj::_::NullableValue"* %29, i64 0, metadata !11460, metadata !8316), !dbg !12228
  call void @llvm.dbg.value(metadata %"class.kj::Maybe.15"* %30, i64 0, metadata !11463, metadata !8475), !dbg !12230
  %108 = load i8, i8* %99, align 8, !dbg !12231, !tbaa !11469, !range !8348
  %109 = icmp eq i8 %108, 0, !dbg !12231
  store i8 %108, i8* %98, align 8, !dbg !12232, !tbaa !11469
  br i1 %109, label %232, label %110, !dbg !12233

; <label>:110:                                    ; preds = %107
  call void @llvm.dbg.value(metadata %"class.kj::_::NullableValue"* %29, i64 0, metadata !11474, metadata !11484), !dbg !12234
  call void @llvm.dbg.value(metadata %"class.kj::Maybe.15"* %30, i64 0, metadata !11479, metadata !11484), !dbg !12236
  call void @llvm.dbg.value(metadata %"class.kj::_::NullableValue"* %29, i64 0, metadata !11490, metadata !11484), !dbg !12237
  call void @llvm.dbg.value(metadata %"class.kj::Maybe.15"* %30, i64 0, metadata !11493, metadata !11484), !dbg !12239
  call void @llvm.dbg.value(metadata %"class.kj::_::NullableValue"* %29, i64 0, metadata !11497, metadata !11484), !dbg !12240
  call void @llvm.dbg.value(metadata %"class.kj::Maybe.15"* %30, i64 0, metadata !11500, metadata !11484), !dbg !12242
  %111 = getelementptr inbounds %"class.kj::_::NullableValue", %"class.kj::_::NullableValue"* %29, i64 0, i32 1, i32 0, i32 0, i32 2, !dbg !12243
  %112 = getelementptr inbounds %"class.kj::Maybe.15", %"class.kj::Maybe.15"* %30, i64 0, i32 0, i32 1, i32 0, i32 0, i32 2, !dbg !12244
  %113 = bitcast %"class.capnp::_::CapTableBuilder"** %112 to <2 x i64>*, !dbg !12244
  %114 = load <2 x i64>, <2 x i64>* %113, align 8, !dbg !12244, !tbaa !11507
  %115 = bitcast %"class.capnp::_::CapTableBuilder"** %111 to <2 x i64>*, !dbg !12243
  store <2 x i64> %114, <2 x i64>* %115, align 8, !dbg !12243, !tbaa !11507
  %116 = getelementptr inbounds %"class.kj::Maybe.15", %"class.kj::Maybe.15"* %30, i64 0, i32 0, i32 1, i32 0, i32 0, i32 0, i32 0, !dbg !12245
  %117 = getelementptr inbounds %"class.kj::_::NullableValue", %"class.kj::_::NullableValue"* %29, i64 0, i32 1, i32 0, i32 0, i32 0, i32 0, !dbg !12245
  %118 = bitcast i64* %116 to <2 x i64>*, !dbg !12245
  %119 = load <2 x i64>, <2 x i64>* %118, align 8, !dbg !12245
  %120 = bitcast i64* %117 to <2 x i64>*, !dbg !12245
  store <2 x i64> %119, <2 x i64>* %120, align 8, !dbg !12245
  call void @llvm.dbg.value(metadata %"class.kj::Maybe.15"* %30, i64 0, metadata !11510, metadata !8475), !dbg !12246
  call void @llvm.dbg.value(metadata %"class.kj::Maybe.15"* %30, i64 0, metadata !11522, metadata !11484), !dbg !12249
  call void @llvm.dbg.value(metadata %"class.kj::Maybe.15"* %30, i64 0, metadata !11532, metadata !11484), !dbg !12251
  call void @llvm.lifetime.end.p0i8(i64 40, i8* nonnull %99) #10, !dbg !12218
  call void @llvm.dbg.value(metadata %"class.kj::_::NullableValue"* %29, i64 0, metadata !12075, metadata !8316), !dbg !12218
  call void @llvm.dbg.value(metadata %"class.kj::parse::IteratorInput"* %28, i64 0, metadata !12074, metadata !8316), !dbg !12195
  call void @llvm.dbg.value(metadata %"class.kj::parse::IteratorInput"* %28, i64 0, metadata !11419, metadata !8316), !dbg !12253
  %121 = load i32, i32* %91, align 8, !dbg !12255
  call void @llvm.dbg.value(metadata %"class.capnp::List<capnp::compiler::Token, capnp::Kind::STRUCT>::Reader"* %27, i64 0, metadata !11380, metadata !8316), !dbg !12256
  call void @llvm.dbg.value(metadata %"class.capnp::List<capnp::compiler::Token, capnp::Kind::STRUCT>::Reader"* %27, i64 0, metadata !11385, metadata !8316), !dbg !12258
  call void @llvm.dbg.value(metadata %"class.capnp::List<capnp::compiler::Token, capnp::Kind::STRUCT>::Reader"* %27, i64 0, metadata !11390, metadata !8475), !dbg !12260
  %122 = load i32, i32* %87, align 8, !dbg !12262, !tbaa !11396
  call void @llvm.dbg.value(metadata %"class.capnp::_::IndexingIterator"* undef, i64 0, metadata !11548, metadata !8316), !dbg !12263
  call void @llvm.dbg.value(metadata %"class.capnp::_::IndexingIterator"* undef, i64 0, metadata !11551, metadata !8316), !dbg !12265
  %123 = icmp eq i32 %121, %122, !dbg !12266
  br i1 %123, label %161, label %146, !dbg !12267, !prof !11557

; <label>:124:                                    ; preds = %49, %46, %42
  %125 = landingpad { i8*, i32 }
          cleanup, !dbg !12268
  %126 = extractvalue { i8*, i32 } %125, 0, !dbg !12268
  %127 = extractvalue { i8*, i32 } %125, 1, !dbg !12268
  br label %398, !dbg !12268

; <label>:128:                                    ; preds = %325, %56, %53
  %129 = landingpad { i8*, i32 }
          cleanup, !dbg !12268
  %130 = extractvalue { i8*, i32 } %129, 0, !dbg !12268
  %131 = extractvalue { i8*, i32 } %129, 1, !dbg !12268
  br label %395, !dbg !12268

; <label>:132:                                    ; preds = %63, %59
  %133 = landingpad { i8*, i32 }
          cleanup, !dbg !12268
  %134 = extractvalue { i8*, i32 } %133, 0, !dbg !12268
  %135 = extractvalue { i8*, i32 } %133, 1, !dbg !12268
  br label %392, !dbg !12269

; <label>:136:                                    ; preds = %97
  %137 = landingpad { i8*, i32 }
          cleanup, !dbg !12270
  %138 = extractvalue { i8*, i32 } %137, 0, !dbg !12270
  %139 = extractvalue { i8*, i32 } %137, 1, !dbg !12270
  call void @llvm.lifetime.end.p0i8(i64 40, i8* nonnull %99) #10, !dbg !12218
  br label %341, !dbg !12218

; <label>:140:                                    ; preds = %164, %161
  %141 = landingpad { i8*, i32 }
          cleanup, !dbg !12270
  br label %142, !dbg !12270

; <label>:142:                                    ; preds = %227, %140
  %143 = phi { i8*, i32 } [ %141, %140 ], [ %213, %227 ]
  %144 = extractvalue { i8*, i32 } %143, 0, !dbg !12270
  %145 = extractvalue { i8*, i32 } %143, 1, !dbg !12270
  br label %330, !dbg !12270

; <label>:146:                                    ; preds = %110
  %147 = bitcast %"class.kj::_::Debug::Fault"* %31 to i8*, !dbg !12271
  call void @llvm.lifetime.start.p0i8(i64 8, i8* nonnull %147) #10, !dbg !12271
  invoke void @_ZN2kj1_5Debug5FaultC2INS_9Exception4TypeEJRA23_KcEEEPS6_iT_S9_S9_DpOT0_(%"class.kj::_::Debug::Fault"* nonnull %31, i8* getelementptr inbounds ([29 x i8], [29 x i8]* @.str, i64 0, i64 0), i32 75, i32 0, i8* getelementptr inbounds ([42 x i8], [42 x i8]* @.str.1, i64 0, i64 0), i8* getelementptr inbounds ([25 x i8], [25 x i8]* @.str.2, i64 0, i64 0), [23 x i8]* nonnull dereferenceable(23) @.str.3)
          to label %148 unwind label %150, !dbg !12271

; <label>:148:                                    ; preds = %146
  invoke void @_ZN2kj1_5Debug5Fault5fatalEv(%"class.kj::_::Debug::Fault"* nonnull %31) #12
          to label %149 unwind label %154, !dbg !12272

; <label>:149:                                    ; preds = %148
  unreachable, !dbg !12272

; <label>:150:                                    ; preds = %146
  %151 = landingpad { i8*, i32 }
          cleanup, !dbg !12274
  %152 = extractvalue { i8*, i32 } %151, 0, !dbg !12274
  %153 = extractvalue { i8*, i32 } %151, 1, !dbg !12274
  br label %158, !dbg !12274

; <label>:154:                                    ; preds = %148
  %155 = landingpad { i8*, i32 }
          cleanup, !dbg !12275
  %156 = extractvalue { i8*, i32 } %155, 0, !dbg !12275
  %157 = extractvalue { i8*, i32 } %155, 1, !dbg !12275
  invoke void @_ZN2kj1_5Debug5FaultD1Ev(%"class.kj::_::Debug::Fault"* nonnull %31)
          to label %158 unwind label %404, !dbg !12272

; <label>:158:                                    ; preds = %154, %150
  %159 = phi i32 [ %157, %154 ], [ %153, %150 ]
  %160 = phi i8* [ %156, %154 ], [ %152, %150 ]
  call void @llvm.lifetime.end.p0i8(i64 8, i8* nonnull %147) #10, !dbg !12272
  br label %330, !dbg !12272

; <label>:161:                                    ; preds = %110
  call void @llvm.dbg.value(metadata %"class.kj::_::NullableValue"* %29, i64 0, metadata !12075, metadata !8316), !dbg !12218
  call void @llvm.dbg.value(metadata %"class.kj::_::NullableValue"* %29, i64 0, metadata !11566, metadata !11484), !dbg !12276
  %162 = getelementptr inbounds %"class.kj::_::NullableValue", %"class.kj::_::NullableValue"* %29, i64 0, i32 1, i32 0, i32 0, !dbg !12278
  %163 = bitcast %"class.capnp::_::StructReader"* %8 to i8*, !dbg !12279
  call void @llvm.lifetime.start.p0i8(i64 48, i8* nonnull %163), !dbg !12279, !noalias !12281
  call void @llvm.dbg.value(metadata %"class.capnp::_::OrphanBuilder"* %162, i64 0, metadata !11587, metadata !8316), !dbg !12279
  invoke void @_ZNK5capnp1_13OrphanBuilder14asStructReaderENS0_10StructSizeE(%"class.capnp::_::StructReader"* nonnull sret %8, %"class.capnp::_::OrphanBuilder"* nonnull %162, i32 131075)
          to label %164 unwind label %140, !dbg !12284

; <label>:164:                                    ; preds = %161
  call void @llvm.memcpy.p0i8.p0i8.i64(i8* nonnull %38, i8* nonnull %163, i64 48, i32 8, i1 false), !dbg !12285
  call void @llvm.dbg.value(metadata %"class.capnp::compiler::Expression::Reader"* undef, i64 0, metadata !11596, metadata !8316) #10, !dbg !12285
  call void @llvm.lifetime.end.p0i8(i64 48, i8* nonnull %163), !dbg !12287, !noalias !12281
  call void @llvm.dbg.value(metadata %class.anon.7* undef, i64 0, metadata !12288, metadata !8316), !dbg !12298
  %165 = bitcast %"class.(anonymous namespace)::ThrowingErrorReporter"* %9 to i8*, !dbg !12300
  call void @llvm.lifetime.start.p0i8(i64 8, i8* nonnull %165) #10, !dbg !12300
  call void @llvm.dbg.value(metadata %"class.(anonymous namespace)::ThrowingErrorReporter"* %9, i64 0, metadata !12292, metadata !8316), !dbg !12301
  call void @llvm.dbg.value(metadata %"class.(anonymous namespace)::ThrowingErrorReporter"* %9, i64 0, metadata !11169, metadata !8316), !dbg !12302
  %166 = getelementptr inbounds %"class.(anonymous namespace)::ThrowingErrorReporter", %"class.(anonymous namespace)::ThrowingErrorReporter"* %9, i64 0, i32 0, i32 0, !dbg !12304
  store i32 (...)** bitcast (i8** getelementptr inbounds ({ [4 x i8*] }, { [4 x i8*] }* @_ZTVN12_GLOBAL__N_121ThrowingErrorReporterE, i64 0, inrange i32 0, i64 2) to i32 (...)**), i32 (...)*** %166, align 8, !dbg !12304, !tbaa !8460
  %167 = bitcast %"class.(anonymous namespace)::ExternalResolver"* %10 to i8*, !dbg !12305
  call void @llvm.lifetime.start.p0i8(i64 8, i8* nonnull %167) #10, !dbg !12305
  call void @llvm.dbg.value(metadata %"class.(anonymous namespace)::ExternalResolver"* %10, i64 0, metadata !12293, metadata !8316), !dbg !12306
  call void @llvm.dbg.value(metadata %"class.(anonymous namespace)::ExternalResolver"* %10, i64 0, metadata !11655, metadata !8316), !dbg !12307
  %168 = getelementptr inbounds %"class.(anonymous namespace)::ExternalResolver", %"class.(anonymous namespace)::ExternalResolver"* %10, i64 0, i32 0, i32 0, !dbg !12309
  store i32 (...)** bitcast (i8** getelementptr inbounds ({ [4 x i8*] }, { [4 x i8*] }* @_ZTVN12_GLOBAL__N_116ExternalResolverE, i64 0, inrange i32 0, i64 2) to i32 (...)**), i32 (...)*** %168, align 8, !dbg !12309, !tbaa !8460
  %169 = bitcast %"class.capnp::compiler::ValueTranslator"* %11 to i8*, !dbg !12310
  call void @llvm.lifetime.start.p0i8(i64 32, i8* nonnull %169) #10, !dbg !12310
  %170 = getelementptr inbounds %"class.(anonymous namespace)::ExternalResolver", %"class.(anonymous namespace)::ExternalResolver"* %10, i64 0, i32 0, !dbg !12311
  %171 = getelementptr inbounds %"class.(anonymous namespace)::ThrowingErrorReporter", %"class.(anonymous namespace)::ThrowingErrorReporter"* %9, i64 0, i32 0, !dbg !12312
  %172 = bitcast %"class.capnp::Orphanage"* %6 to <2 x i64>*, !dbg !12313
  %173 = load <2 x i64>, <2 x i64>* %172, align 8, !dbg !12313
  call void @llvm.dbg.value(metadata %"class.capnp::compiler::ValueTranslator"* %11, i64 0, metadata !12294, metadata !8316), !dbg !12314
  call void @llvm.dbg.value(metadata %"class.capnp::Orphanage"* %6, i64 0, metadata !11699, metadata !12315), !dbg !12316
  call void @llvm.dbg.value(metadata %"class.capnp::Orphanage"* %6, i64 0, metadata !11699, metadata !12318), !dbg !12316
  call void @llvm.dbg.value(metadata %"class.capnp::compiler::ValueTranslator"* %11, i64 0, metadata !11702, metadata !8316), !dbg !12319
  call void @llvm.dbg.value(metadata %"class.capnp::compiler::ValueTranslator::Resolver"* %170, i64 0, metadata !11704, metadata !8316), !dbg !12320
  call void @llvm.dbg.value(metadata %"class.capnp::compiler::ErrorReporter"* %171, i64 0, metadata !11705, metadata !8316), !dbg !12321
  call void @llvm.dbg.declare(metadata %"class.capnp::Orphanage"* undef, metadata !11699, metadata !8316), !dbg !12316
  %174 = getelementptr inbounds %"class.capnp::compiler::ValueTranslator", %"class.capnp::compiler::ValueTranslator"* %11, i64 0, i32 0, !dbg !12322
  store %"class.capnp::compiler::ValueTranslator::Resolver"* %170, %"class.capnp::compiler::ValueTranslator::Resolver"** %174, align 8, !dbg !12322, !tbaa !11712
  %175 = getelementptr inbounds %"class.capnp::compiler::ValueTranslator", %"class.capnp::compiler::ValueTranslator"* %11, i64 0, i32 1, !dbg !12323
  store %"class.capnp::compiler::ErrorReporter"* %171, %"class.capnp::compiler::ErrorReporter"** %175, align 8, !dbg !12323, !tbaa !11712
  %176 = getelementptr inbounds %"class.capnp::compiler::ValueTranslator", %"class.capnp::compiler::ValueTranslator"* %11, i64 0, i32 2, i32 0, !dbg !12324
  %177 = bitcast %"class.capnp::_::BuilderArena"** %176 to <2 x i64>*, !dbg !12324
  store <2 x i64> %173, <2 x i64>* %177, align 8, !dbg !12324
  %178 = getelementptr inbounds %"class.kj::_::NullableValue.28", %"class.kj::_::NullableValue.28"* %12, i64 0, i32 0, !dbg !12325
  call void @llvm.lifetime.start.p0i8(i64 64, i8* nonnull %178) #10, !dbg !12325
  %179 = getelementptr inbounds %"class.kj::Maybe.30", %"class.kj::Maybe.30"* %13, i64 0, i32 0, i32 0, !dbg !12326
  call void @llvm.lifetime.start.p0i8(i64 64, i8* nonnull %179) #10, !dbg !12326
  call void @llvm.dbg.value(metadata %"class.capnp::compiler::ValueTranslator"* %11, i64 0, metadata !12294, metadata !8316), !dbg !12314
  %180 = bitcast [48 x i8]* %32 to %"class.capnp::compiler::Expression::Reader"*
  invoke void @_ZN5capnp8compiler15ValueTranslator12compileValueENS0_10Expression6ReaderENS_4TypeE(%"class.kj::Maybe.30"* nonnull sret %13, %"class.capnp::compiler::ValueTranslator"* nonnull %11, %"class.capnp::compiler::Expression::Reader"* byval nonnull align 8 %180, i64 %4, %"struct.capnp::_::RawBrandedSchema"* %5)
          to label %181 unwind label %140, !dbg !12326

; <label>:181:                                    ; preds = %164
  call void @llvm.dbg.value(metadata %"class.kj::_::NullableValue.28"* %12, i64 0, metadata !12327, metadata !8316), !dbg !12332
  call void @llvm.dbg.value(metadata %"class.kj::Maybe.30"* %13, i64 0, metadata !12330, metadata !8475), !dbg !12334
  %182 = load i8, i8* %179, align 8, !dbg !12335, !tbaa !12336, !range !8348
  %183 = icmp eq i8 %182, 0, !dbg !12335
  store i8 %182, i8* %178, align 8, !dbg !12338, !tbaa !12336
  br i1 %183, label %184, label %185, !dbg !12339

; <label>:184:                                    ; preds = %181
  call void @llvm.dbg.value(metadata %"class.kj::Maybe.30"* %13, i64 0, metadata !12341, metadata !8475), !dbg !12344
  call void @llvm.lifetime.end.p0i8(i64 64, i8* nonnull %179) #10, !dbg !12326
  call void @llvm.dbg.value(metadata %"class.kj::_::NullableValue.28"* %12, i64 0, metadata !12295, metadata !8316), !dbg !12326
  br label %231, !dbg !12325

; <label>:185:                                    ; preds = %181
  %186 = getelementptr inbounds %"class.kj::_::NullableValue.28", %"class.kj::_::NullableValue.28"* %12, i64 0, i32 1, i32 0, !dbg !12353
  %187 = getelementptr inbounds %"class.kj::Maybe.30", %"class.kj::Maybe.30"* %13, i64 0, i32 0, i32 1, i32 0, !dbg !12356
  call void @llvm.dbg.value(metadata %"class.capnp::Orphan"* %186, i64 0, metadata !12357, metadata !8316) #10, !dbg !12367
  call void @llvm.dbg.value(metadata %"class.capnp::Orphan"* %187, i64 0, metadata !12362, metadata !8316) #10, !dbg !12369
  %188 = bitcast %"class.capnp::Orphan"* %186 to i8*, !dbg !12370
  call void @llvm.dbg.value(metadata %"class.capnp::Orphan"* %186, i64 0, metadata !12371, metadata !8316) #10, !dbg !12375
  call void @llvm.dbg.value(metadata %"class.capnp::Orphan"* %187, i64 0, metadata !12374, metadata !8316) #10, !dbg !12377
  %189 = bitcast %"class.capnp::Orphan"* %187 to i8*, !dbg !12378
  call void @llvm.memcpy.p0i8.p0i8.i64(i8* nonnull %188, i8* nonnull %189, i64 24, i32 8, i1 false) #10, !dbg !12378
  call void @llvm.dbg.value(metadata %"class.capnp::Orphan"* %186, i64 0, metadata !11497, metadata !12379) #10, !dbg !12380
  call void @llvm.dbg.value(metadata %"class.capnp::Orphan"* %187, i64 0, metadata !11500, metadata !12379) #10, !dbg !12382
  %190 = getelementptr inbounds %"class.kj::_::NullableValue.28", %"class.kj::_::NullableValue.28"* %12, i64 0, i32 1, i32 0, i32 2, i32 1, !dbg !12383
  %191 = getelementptr inbounds %"class.kj::Maybe.30", %"class.kj::Maybe.30"* %13, i64 0, i32 0, i32 1, i32 0, i32 2, i32 0, i32 0, !dbg !12384
  %192 = bitcast i64* %191 to <2 x i64>*, !dbg !12384
  %193 = load <2 x i64>, <2 x i64>* %192, align 8, !dbg !12384
  %194 = getelementptr inbounds %"class.kj::_::NullableValue.28", %"class.kj::_::NullableValue.28"* %12, i64 0, i32 1, i32 0, i32 2, i32 2, !dbg !12385
  %195 = getelementptr inbounds %"class.kj::Maybe.30", %"class.kj::Maybe.30"* %13, i64 0, i32 0, i32 1, i32 0, i32 2, i32 2, !dbg !12386
  %196 = bitcast %"class.capnp::_::CapTableBuilder"** %195 to <2 x i64>*, !dbg !12386
  %197 = load <2 x i64>, <2 x i64>* %196, align 8, !dbg !12386, !tbaa !11507
  %198 = getelementptr inbounds %"class.kj::_::NullableValue.28", %"class.kj::_::NullableValue.28"* %12, i64 0, i32 1, i32 0, i32 2, i32 3, !dbg !12387
  %199 = bitcast %"class.capnp::_::CapTableBuilder"** %194 to <2 x i64>*, !dbg !12385
  store <2 x i64> %197, <2 x i64>* %199, align 8, !dbg !12385, !tbaa !11507
  %200 = getelementptr inbounds %"class.kj::_::NullableValue.28", %"class.kj::_::NullableValue.28"* %12, i64 0, i32 1, i32 0, i32 2, i32 0, i32 0, !dbg !12384
  %201 = bitcast i64* %200 to <2 x i64>*, !dbg !12384
  store <2 x i64> %193, <2 x i64>* %201, align 8, !dbg !12384
  call void @llvm.dbg.value(metadata %"class.kj::Maybe.30"* %13, i64 0, metadata !12341, metadata !8475), !dbg !12344
  call void @llvm.dbg.value(metadata %"class.kj::Maybe.30"* %13, i64 0, metadata !12388, metadata !11484), !dbg !12393
  call void @llvm.dbg.value(metadata %"class.kj::Maybe.30"* %13, i64 0, metadata !12398, metadata !11484), !dbg !12404
  call void @llvm.lifetime.end.p0i8(i64 64, i8* nonnull %179) #10, !dbg !12326
  call void @llvm.dbg.value(metadata %"class.kj::_::NullableValue.28"* %12, i64 0, metadata !12295, metadata !8316), !dbg !12326
  call void @llvm.dbg.value(metadata %"class.kj::_::NullableValue.28"* %12, i64 0, metadata !12295, metadata !8316), !dbg !12326
  call void @llvm.dbg.value(metadata %"class.capnp::Orphan"* %0, i64 0, metadata !12406, metadata !8316), !dbg !12410
  call void @llvm.dbg.value(metadata %"class.capnp::Orphan"* %186, i64 0, metadata !12409, metadata !8316), !dbg !12413
  %202 = bitcast %"class.capnp::Orphan"* %0 to i8*, !dbg !12414
  call void @llvm.memcpy.p0i8.p0i8.i64(i8* %202, i8* nonnull %188, i64 24, i32 8, i1 false), !dbg !12414
  call void @llvm.dbg.value(metadata %"class.capnp::_::OrphanBuilder"* %36, i64 0, metadata !12415, metadata !8316), !dbg !12419
  call void @llvm.dbg.value(metadata %"class.capnp::Orphan"* %186, i64 0, metadata !12418, metadata !12379), !dbg !12422
  %203 = getelementptr inbounds %"class.capnp::Orphan", %"class.capnp::Orphan"* %0, i64 0, i32 2, i32 1, !dbg !12423
  %204 = load %"class.capnp::_::SegmentBuilder"*, %"class.capnp::_::SegmentBuilder"** %203, align 8, !dbg !12423, !tbaa !11940
  %205 = icmp eq %"class.capnp::_::SegmentBuilder"* %204, null, !dbg !12425
  br i1 %205, label %221, label %206, !dbg !12426

; <label>:206:                                    ; preds = %185
  invoke void @_ZN5capnp1_13OrphanBuilder9euthanizeEv(%"class.capnp::_::OrphanBuilder"* nonnull %36)
          to label %207 unwind label %212, !dbg !12427

; <label>:207:                                    ; preds = %206
  %208 = bitcast %"class.capnp::_::CapTableBuilder"** %194 to <2 x i64>*, !dbg !12428
  %209 = load <2 x i64>, <2 x i64>* %208, align 8, !dbg !12428, !tbaa !11507
  %210 = bitcast i64* %200 to <2 x i64>*, !dbg !12429
  %211 = load <2 x i64>, <2 x i64>* %210, align 8, !dbg !12429
  br label %221, !dbg !12427

; <label>:212:                                    ; preds = %206
  %213 = landingpad { i8*, i32 }
          cleanup, !dbg !12430
  call void @llvm.dbg.value(metadata %"class.kj::_::NullableValue.28"* %12, i64 0, metadata !12341, metadata !8316), !dbg !12431
  %214 = load i8, i8* %178, align 8, !dbg !12433, !tbaa !12336, !range !8348
  %215 = icmp eq i8 %214, 0, !dbg !12433
  %216 = load %"class.capnp::_::SegmentBuilder"*, %"class.capnp::_::SegmentBuilder"** %190, align 8, !dbg !12434
  %217 = icmp eq %"class.capnp::_::SegmentBuilder"* %216, null, !dbg !12439
  %218 = or i1 %215, %217, !dbg !12440
  call void @llvm.dbg.value(metadata %"class.kj::_::NullableValue.28"* %12, i64 0, metadata !12388, metadata !11484), !dbg !12441
  call void @llvm.dbg.value(metadata %"class.kj::_::NullableValue.28"* %12, i64 0, metadata !12398, metadata !11484), !dbg !12442
  br i1 %218, label %227, label %219, !dbg !12440

; <label>:219:                                    ; preds = %212
  %220 = getelementptr inbounds %"class.kj::_::NullableValue.28", %"class.kj::_::NullableValue.28"* %12, i64 0, i32 1, i32 0, i32 2, !dbg !12443
  invoke void @_ZN5capnp1_13OrphanBuilder9euthanizeEv(%"class.capnp::_::OrphanBuilder"* nonnull %220)
          to label %227 unwind label %228, !dbg !12444

; <label>:221:                                    ; preds = %207, %185
  %222 = phi <2 x i64> [ %211, %207 ], [ %193, %185 ], !dbg !12429
  %223 = phi <2 x i64> [ %209, %207 ], [ %197, %185 ], !dbg !12428
  %224 = getelementptr inbounds %"class.capnp::Orphan", %"class.capnp::Orphan"* %0, i64 0, i32 2, i32 2, !dbg !12445
  %225 = bitcast %"class.capnp::_::CapTableBuilder"** %224 to <2 x i64>*, !dbg !12446
  store <2 x i64> %223, <2 x i64>* %225, align 8, !dbg !12446, !tbaa !11507
  %226 = bitcast %"class.capnp::_::OrphanBuilder"* %36 to <2 x i64>*, !dbg !12429
  store <2 x i64> %222, <2 x i64>* %226, align 8, !dbg !12429
  store %"class.capnp::_::SegmentBuilder"* null, %"class.capnp::_::SegmentBuilder"** %190, align 8, !dbg !12447, !tbaa !11940
  store %"class.capnp::word"* null, %"class.capnp::word"** %198, align 8, !dbg !12448, !tbaa !12449
  call void @llvm.dbg.value(metadata %"class.kj::_::NullableValue.28"* %12, i64 0, metadata !12295, metadata !8316), !dbg !12326
  call void @llvm.dbg.value(metadata %"class.kj::_::NullableValue.28"* %12, i64 0, metadata !12341, metadata !8316), !dbg !12450
  br label %231, !dbg !12452

; <label>:227:                                    ; preds = %219, %212
  call void @llvm.lifetime.end.p0i8(i64 64, i8* nonnull %178) #10, !dbg !12325
  call void @llvm.lifetime.end.p0i8(i64 32, i8* nonnull %169) #10, !dbg !12453
  call void @llvm.lifetime.end.p0i8(i64 8, i8* nonnull %167) #10, !dbg !12453
  call void @llvm.lifetime.end.p0i8(i64 8, i8* nonnull %165) #10, !dbg !12453
  br label %142

; <label>:228:                                    ; preds = %219
  %229 = landingpad { i8*, i32 }
          catch i8* null, !dbg !12326
  %230 = extractvalue { i8*, i32 } %229, 0, !dbg !12326
  call void @__clang_call_terminate(i8* %230) #11, !dbg !12326
  unreachable, !dbg !12326

; <label>:231:                                    ; preds = %221, %184
  call void @llvm.lifetime.end.p0i8(i64 64, i8* nonnull %178) #10, !dbg !12325
  call void @llvm.lifetime.end.p0i8(i64 32, i8* nonnull %169) #10, !dbg !12453
  call void @llvm.lifetime.end.p0i8(i64 8, i8* nonnull %167) #10, !dbg !12453
  call void @llvm.lifetime.end.p0i8(i64 8, i8* nonnull %165) #10, !dbg !12453
  br label %287, !dbg !12453

; <label>:232:                                    ; preds = %107
  call void @llvm.dbg.value(metadata %"class.kj::Maybe.15"* %30, i64 0, metadata !11510, metadata !8475), !dbg !12246
  call void @llvm.lifetime.end.p0i8(i64 40, i8* nonnull %99) #10, !dbg !12218
  call void @llvm.dbg.value(metadata %"class.kj::_::NullableValue"* %29, i64 0, metadata !12075, metadata !8316), !dbg !12218
  call void @llvm.dbg.value(metadata %"class.kj::parse::IteratorInput"* %28, i64 0, metadata !11789, metadata !8316), !dbg !12454
  %233 = getelementptr inbounds %"class.kj::parse::IteratorInput", %"class.kj::parse::IteratorInput"* %28, i64 0, i32 1, !dbg !12456
  %234 = getelementptr inbounds %"class.kj::parse::IteratorInput", %"class.kj::parse::IteratorInput"* %28, i64 0, i32 3, !dbg !12457
  call void @llvm.dbg.value(metadata %"class.capnp::_::IndexingIterator"* %233, i64 0, metadata !11796, metadata !8316), !dbg !12458
  call void @llvm.dbg.value(metadata %"class.capnp::_::IndexingIterator"* %234, i64 0, metadata !11801, metadata !8316), !dbg !12460
  call void @llvm.dbg.value(metadata %"class.capnp::_::IndexingIterator"* %233, i64 0, metadata !11808, metadata !8316), !dbg !12461
  call void @llvm.dbg.value(metadata %"class.capnp::_::IndexingIterator"* %234, i64 0, metadata !11811, metadata !8316), !dbg !12463
  %235 = load i32, i32* %91, align 8, !dbg !12464, !tbaa !11816
  %236 = load i32, i32* %95, align 8, !dbg !12465, !tbaa !11816
  %237 = icmp ugt i32 %235, %236, !dbg !12466
  %238 = select i1 %237, %"class.capnp::_::IndexingIterator"* %233, %"class.capnp::_::IndexingIterator"* %234, !dbg !12467
  %239 = getelementptr inbounds %"class.capnp::_::IndexingIterator", %"class.capnp::_::IndexingIterator"* %238, i64 0, i32 1
  %240 = load i32, i32* %239, align 8
  call void @llvm.dbg.value(metadata %"class.capnp::List<capnp::compiler::Token, capnp::Kind::STRUCT>::Reader"* %27, i64 0, metadata !11380, metadata !8316), !dbg !12468
  call void @llvm.dbg.value(metadata %"class.capnp::List<capnp::compiler::Token, capnp::Kind::STRUCT>::Reader"* %27, i64 0, metadata !11385, metadata !8316), !dbg !12470
  call void @llvm.dbg.value(metadata %"class.capnp::List<capnp::compiler::Token, capnp::Kind::STRUCT>::Reader"* %27, i64 0, metadata !11390, metadata !8475), !dbg !12472
  %241 = load i32, i32* %87, align 8, !dbg !12474, !tbaa !11396
  call void @llvm.dbg.value(metadata %"class.capnp::_::IndexingIterator"* undef, i64 0, metadata !12083, metadata !8316), !dbg !12475
  call void @llvm.dbg.value(metadata %"class.capnp::_::IndexingIterator"* undef, i64 0, metadata !11548, metadata !8316), !dbg !12476
  call void @llvm.dbg.value(metadata %"class.capnp::_::IndexingIterator"* undef, i64 0, metadata !11551, metadata !8316), !dbg !12478
  %242 = icmp eq i32 %240, %241, !dbg !12479
  br i1 %242, label %243, label %258, !dbg !12480

; <label>:243:                                    ; preds = %232
  %244 = bitcast %"class.kj::_::Debug::Fault"* %33 to i8*, !dbg !12481
  call void @llvm.lifetime.start.p0i8(i64 8, i8* nonnull %244) #10, !dbg !12481
  invoke void @_ZN2kj1_5Debug5FaultC2INS_9Exception4TypeEJRA24_KcEEEPS6_iT_S9_S9_DpOT0_(%"class.kj::_::Debug::Fault"* nonnull %33, i8* getelementptr inbounds ([29 x i8], [29 x i8]* @.str, i64 0, i64 0), i32 81, i32 0, i8* null, i8* getelementptr inbounds ([26 x i8], [26 x i8]* @.str.4, i64 0, i64 0), [24 x i8]* nonnull dereferenceable(24) @.str.5)
          to label %245 unwind label %247, !dbg !12481

; <label>:245:                                    ; preds = %243
  invoke void @_ZN2kj1_5Debug5Fault5fatalEv(%"class.kj::_::Debug::Fault"* nonnull %33) #12
          to label %246 unwind label %251, !dbg !12482

; <label>:246:                                    ; preds = %245
  unreachable, !dbg !12482

; <label>:247:                                    ; preds = %243
  %248 = landingpad { i8*, i32 }
          cleanup, !dbg !12484
  %249 = extractvalue { i8*, i32 } %248, 0, !dbg !12484
  %250 = extractvalue { i8*, i32 } %248, 1, !dbg !12484
  br label %255, !dbg !12484

; <label>:251:                                    ; preds = %245
  %252 = landingpad { i8*, i32 }
          cleanup, !dbg !12485
  %253 = extractvalue { i8*, i32 } %252, 0, !dbg !12485
  %254 = extractvalue { i8*, i32 } %252, 1, !dbg !12485
  invoke void @_ZN2kj1_5Debug5FaultD1Ev(%"class.kj::_::Debug::Fault"* nonnull %33)
          to label %255 unwind label %404, !dbg !12482

; <label>:255:                                    ; preds = %251, %247
  %256 = phi i32 [ %254, %251 ], [ %250, %247 ]
  %257 = phi i8* [ %253, %251 ], [ %249, %247 ]
  call void @llvm.lifetime.end.p0i8(i64 8, i8* nonnull %244) #10, !dbg !12482
  br label %330, !dbg !12482

; <label>:258:                                    ; preds = %232
  %259 = getelementptr inbounds %"class.capnp::_::IndexingIterator", %"class.capnp::_::IndexingIterator"* %238, i64 0, i32 0
  %260 = load %"class.capnp::List<capnp::compiler::Token, capnp::Kind::STRUCT>::Reader"*, %"class.capnp::List<capnp::compiler::Token, capnp::Kind::STRUCT>::Reader"** %259, align 8
  call void @llvm.dbg.value(metadata %"class.capnp::_::IndexingIterator"* undef, i64 0, metadata !11838, metadata !8316), !dbg !12486
  %261 = bitcast %"class.capnp::_::StructReader"* %14 to i8*, !dbg !12489
  call void @llvm.lifetime.start.p0i8(i64 48, i8* nonnull %261), !dbg !12489, !noalias !12491
  call void @llvm.dbg.value(metadata %"class.capnp::List<capnp::compiler::Token, capnp::Kind::STRUCT>::Reader"* %260, i64 0, metadata !11847, metadata !8316), !dbg !12489
  call void @llvm.dbg.value(metadata i32 %240, i64 0, metadata !11848, metadata !8316), !dbg !12494
  %262 = getelementptr inbounds %"class.capnp::List<capnp::compiler::Token, capnp::Kind::STRUCT>::Reader", %"class.capnp::List<capnp::compiler::Token, capnp::Kind::STRUCT>::Reader"* %260, i64 0, i32 0, !dbg !12495
  invoke void @_ZNK5capnp1_10ListReader16getStructElementEj(%"class.capnp::_::StructReader"* nonnull sret %14, %"class.capnp::_::ListReader"* %262, i32 %240)
          to label %263 unwind label %283, !dbg !12496

; <label>:263:                                    ; preds = %258
  %264 = getelementptr inbounds %"class.capnp::_::StructReader", %"class.capnp::_::StructReader"* %14, i64 0, i32 2, !dbg !12497
  %265 = bitcast i8** %264 to %"class.capnp::_::DirectWireValue.27"**, !dbg !12497
  %266 = load %"class.capnp::_::DirectWireValue.27"*, %"class.capnp::_::DirectWireValue.27"** %265, align 8, !dbg !12497
  %267 = getelementptr inbounds %"class.capnp::_::StructReader", %"class.capnp::_::StructReader"* %14, i64 0, i32 4, !dbg !12497
  %268 = load i32, i32* %267, align 8, !dbg !12497
  call void @llvm.dbg.value(metadata %"class.capnp::compiler::Token::Reader"* undef, i64 0, metadata !11859, metadata !8316) #10, !dbg !12497
  call void @llvm.lifetime.end.p0i8(i64 48, i8* nonnull %261), !dbg !12499, !noalias !12491
  call void @llvm.dbg.value(metadata i8* getelementptr inbounds ([12 x i8], [12 x i8]* @.str.6, i64 0, i64 0), i64 0, metadata !11864, metadata !8945), !dbg !12500
  call void @llvm.dbg.value(metadata i64 12, i64 0, metadata !11864, metadata !8947), !dbg !12500
  call void @llvm.dbg.value(metadata %"class.capnp::compiler::ErrorReporter"* %51, i64 0, metadata !11873, metadata !8316), !dbg !12502
  call void @llvm.dbg.value(metadata %"class.capnp::compiler::Token::Reader"* undef, i64 0, metadata !11875, metadata !8316), !dbg !12503
  call void @llvm.dbg.declare(metadata %"class.kj::StringPtr"* undef, metadata !11864, metadata !8316), !dbg !12500
  %269 = bitcast %"class.(anonymous namespace)::ThrowingErrorReporter"* %23 to void (%"class.capnp::compiler::ErrorReporter"*, i32, i32, i8*, i64)***, !dbg !12504
  %270 = load void (%"class.capnp::compiler::ErrorReporter"*, i32, i32, i8*, i64)**, void (%"class.capnp::compiler::ErrorReporter"*, i32, i32, i8*, i64)*** %269, align 8, !dbg !12504, !tbaa !8460
  %271 = load void (%"class.capnp::compiler::ErrorReporter"*, i32, i32, i8*, i64)*, void (%"class.capnp::compiler::ErrorReporter"*, i32, i32, i8*, i64)** %270, align 8, !dbg !12504
  call void @llvm.dbg.value(metadata %"class.capnp::compiler::Token::Reader"* undef, i64 0, metadata !11881, metadata !8316), !dbg !12505
  call void @llvm.dbg.value(metadata %"class.capnp::compiler::Token::Reader"* undef, i64 0, metadata !11887, metadata !8475), !dbg !12507
  call void @llvm.dbg.value(metadata i32 1, i64 0, metadata !11893, metadata !8316), !dbg !12509
  %272 = icmp ult i32 %268, 64, !dbg !12510
  br i1 %272, label %280, label %273, !dbg !12511

; <label>:273:                                    ; preds = %263
  %274 = getelementptr inbounds %"class.capnp::_::DirectWireValue.27", %"class.capnp::_::DirectWireValue.27"* %266, i64 1, i32 0, !dbg !12512
  %275 = load i32, i32* %274, align 4, !dbg !12512, !tbaa !11907
  call void @llvm.dbg.value(metadata %"class.capnp::compiler::Token::Reader"* undef, i64 0, metadata !11909, metadata !8316), !dbg !12514
  call void @llvm.dbg.value(metadata %"class.capnp::compiler::Token::Reader"* undef, i64 0, metadata !11887, metadata !8475), !dbg !12516
  call void @llvm.dbg.value(metadata i32 4, i64 0, metadata !11893, metadata !8316), !dbg !12518
  %276 = icmp ult i32 %268, 160, !dbg !12519
  br i1 %276, label %280, label %277, !dbg !12520

; <label>:277:                                    ; preds = %273
  %278 = getelementptr inbounds %"class.capnp::_::DirectWireValue.27", %"class.capnp::_::DirectWireValue.27"* %266, i64 4, i32 0, !dbg !12521
  %279 = load i32, i32* %278, align 4, !dbg !12521, !tbaa !11907
  br label %280, !dbg !12523

; <label>:280:                                    ; preds = %277, %273, %263
  %281 = phi i32 [ %275, %277 ], [ %275, %273 ], [ 0, %263 ]
  %282 = phi i32 [ %279, %277 ], [ 0, %273 ], [ 0, %263 ]
  invoke void %271(%"class.capnp::compiler::ErrorReporter"* nonnull %51, i32 %281, i32 %282, i8* getelementptr inbounds ([12 x i8], [12 x i8]* @.str.6, i64 0, i64 0), i64 12)
          to label %287 unwind label %283, !dbg !12504

; <label>:283:                                    ; preds = %280, %258
  %284 = landingpad { i8*, i32 }
          cleanup, !dbg !12524
  %285 = extractvalue { i8*, i32 } %284, 0, !dbg !12524
  %286 = extractvalue { i8*, i32 } %284, 1, !dbg !12524
  br label %330, !dbg !12525

; <label>:287:                                    ; preds = %280, %231
  call void @llvm.dbg.value(metadata %"class.kj::_::NullableValue"* %29, i64 0, metadata !11510, metadata !8316), !dbg !12526
  %288 = load i8, i8* %98, align 8, !dbg !12528, !tbaa !11469, !range !8348
  %289 = icmp eq i8 %288, 0, !dbg !12528
  br i1 %289, label %296, label %290, !dbg !12529

; <label>:290:                                    ; preds = %287
  call void @llvm.dbg.value(metadata %"class.kj::_::NullableValue"* %29, i64 0, metadata !11522, metadata !11484), !dbg !12530
  call void @llvm.dbg.value(metadata %"class.kj::_::NullableValue"* %29, i64 0, metadata !11532, metadata !11484), !dbg !12532
  %291 = getelementptr inbounds %"class.kj::_::NullableValue", %"class.kj::_::NullableValue"* %29, i64 0, i32 1, i32 0, i32 0, i32 1, !dbg !12534
  %292 = load %"class.capnp::_::SegmentBuilder"*, %"class.capnp::_::SegmentBuilder"** %291, align 8, !dbg !12534, !tbaa !11940
  %293 = icmp eq %"class.capnp::_::SegmentBuilder"* %292, null, !dbg !12536
  br i1 %293, label %296, label %294, !dbg !12537

; <label>:294:                                    ; preds = %290
  %295 = getelementptr inbounds %"class.kj::_::NullableValue", %"class.kj::_::NullableValue"* %29, i64 0, i32 1, i32 0, i32 0, !dbg !12538
  invoke void @_ZN5capnp1_13OrphanBuilder9euthanizeEv(%"class.capnp::_::OrphanBuilder"* nonnull %295)
          to label %296 unwind label %326, !dbg !12539

; <label>:296:                                    ; preds = %294, %290, %287
  call void @llvm.lifetime.end.p0i8(i64 40, i8* nonnull %98) #10, !dbg !12217
  call void @llvm.dbg.value(metadata %"class.kj::parse::IteratorInput"* %28, i64 0, metadata !12074, metadata !8316), !dbg !12195
  call void @llvm.dbg.value(metadata %"class.kj::parse::IteratorInput"* %28, i64 0, metadata !11947, metadata !8316) #10, !dbg !12540
  %297 = load %"class.kj::parse::IteratorInput"*, %"class.kj::parse::IteratorInput"** %89, align 8, !dbg !12542, !tbaa !11413
  %298 = icmp eq %"class.kj::parse::IteratorInput"* %297, null, !dbg !12543
  br i1 %298, label %325, label %299, !dbg !12544

; <label>:299:                                    ; preds = %296
  %300 = bitcast { %"class.capnp::List<capnp::compiler::Token, capnp::Kind::STRUCT>::Reader"*, i32 }* %15 to %"class.capnp::_::IndexingIterator"*
  %301 = bitcast { %"class.capnp::List<capnp::compiler::Token, capnp::Kind::STRUCT>::Reader"*, i32 }* %15 to i8*, !dbg !12545
  call void @llvm.lifetime.start.p0i8(i64 16, i8* nonnull %301) #10, !dbg !12545
  %302 = getelementptr inbounds %"class.kj::parse::IteratorInput", %"class.kj::parse::IteratorInput"* %28, i64 0, i32 1, !dbg !12546
  %303 = getelementptr inbounds %"class.kj::parse::IteratorInput", %"class.kj::parse::IteratorInput"* %28, i64 0, i32 3, !dbg !12547
  call void @llvm.dbg.value(metadata %"class.capnp::_::IndexingIterator"* %302, i64 0, metadata !11796, metadata !8316) #10, !dbg !12548
  call void @llvm.dbg.value(metadata %"class.capnp::_::IndexingIterator"* %303, i64 0, metadata !11801, metadata !8316) #10, !dbg !12550
  call void @llvm.dbg.value(metadata %"class.capnp::_::IndexingIterator"* %302, i64 0, metadata !11808, metadata !8316) #10, !dbg !12551
  call void @llvm.dbg.value(metadata %"class.capnp::_::IndexingIterator"* %303, i64 0, metadata !11811, metadata !8316) #10, !dbg !12553
  %304 = load i32, i32* %91, align 8, !dbg !12554, !tbaa !11816
  %305 = load i32, i32* %95, align 8, !dbg !12555, !tbaa !11816
  %306 = icmp ugt i32 %304, %305, !dbg !12556
  %307 = select i1 %306, %"class.capnp::_::IndexingIterator"* %302, %"class.capnp::_::IndexingIterator"* %303, !dbg !12557
  %308 = getelementptr inbounds %"class.capnp::_::IndexingIterator", %"class.capnp::_::IndexingIterator"* %307, i64 0, i32 1
  %309 = load i32, i32* %308, align 8
  %310 = bitcast %"class.capnp::_::IndexingIterator"* %307 to i64*
  %311 = load i64, i64* %310, align 8
  %312 = bitcast { %"class.capnp::List<capnp::compiler::Token, capnp::Kind::STRUCT>::Reader"*, i32 }* %15 to i64*, !dbg !12545
  store i64 %311, i64* %312, align 8, !dbg !12545
  %313 = getelementptr inbounds { %"class.capnp::List<capnp::compiler::Token, capnp::Kind::STRUCT>::Reader"*, i32 }, { %"class.capnp::List<capnp::compiler::Token, capnp::Kind::STRUCT>::Reader"*, i32 }* %15, i64 0, i32 1, !dbg !12545
  store i32 %309, i32* %313, align 8, !dbg !12545
  %314 = getelementptr inbounds %"class.kj::parse::IteratorInput", %"class.kj::parse::IteratorInput"* %297, i64 0, i32 3, !dbg !12558
  call void @llvm.dbg.value(metadata %"class.capnp::_::IndexingIterator"* %300, i64 0, metadata !11972, metadata !8316) #10, !dbg !12559
  call void @llvm.dbg.value(metadata %"class.capnp::_::IndexingIterator"* %314, i64 0, metadata !11978, metadata !8316) #10, !dbg !12561
  call void @llvm.dbg.value(metadata %"class.capnp::_::IndexingIterator"* %300, i64 0, metadata !11808, metadata !8316) #10, !dbg !12562
  call void @llvm.dbg.value(metadata %"class.capnp::_::IndexingIterator"* %314, i64 0, metadata !11811, metadata !8316) #10, !dbg !12564
  %315 = getelementptr inbounds %"class.kj::parse::IteratorInput", %"class.kj::parse::IteratorInput"* %297, i64 0, i32 3, i32 1, !dbg !12565
  %316 = load i32, i32* %315, align 8, !dbg !12565, !tbaa !11816
  %317 = icmp ugt i32 %309, %316, !dbg !12566
  %318 = select i1 %317, %"class.capnp::_::IndexingIterator"* %300, %"class.capnp::_::IndexingIterator"* %314, !dbg !12567
  %319 = getelementptr inbounds %"class.capnp::_::IndexingIterator", %"class.capnp::_::IndexingIterator"* %318, i64 0, i32 1
  %320 = load i32, i32* %319, align 8
  %321 = bitcast %"class.capnp::_::IndexingIterator"* %318 to i64*
  %322 = load i64, i64* %321, align 8
  %323 = getelementptr inbounds %"class.kj::parse::IteratorInput", %"class.kj::parse::IteratorInput"* %297, i64 0, i32 3, i32 0, !dbg !12568
  %324 = bitcast %"class.capnp::List<capnp::compiler::Token, capnp::Kind::STRUCT>::Reader"** %323 to i64*, !dbg !12568
  store i64 %322, i64* %324, align 8, !dbg !12568
  store i32 %320, i32* %315, align 8, !dbg !12568
  call void @llvm.lifetime.end.p0i8(i64 16, i8* nonnull %301) #10, !dbg !12569
  br label %325, !dbg !12570

; <label>:325:                                    ; preds = %299, %296
  call void @llvm.lifetime.end.p0i8(i64 56, i8* nonnull %86) #10, !dbg !12268
  call void @llvm.lifetime.end.p0i8(i64 48, i8* nonnull %60) #10, !dbg !12268
  invoke void @_ZN5capnp8compiler11CapnpParserD1Ev(%"class.capnp::compiler::CapnpParser"* nonnull %26)
          to label %359 unwind label %128, !dbg !12268

; <label>:326:                                    ; preds = %294
  %327 = landingpad { i8*, i32 }
          cleanup, !dbg !12571
  %328 = extractvalue { i8*, i32 } %327, 0, !dbg !12571
  %329 = extractvalue { i8*, i32 } %327, 1, !dbg !12571
  br label %341, !dbg !12571

; <label>:330:                                    ; preds = %283, %255, %158, %142
  %331 = phi i32 [ %145, %142 ], [ %159, %158 ], [ %256, %255 ], [ %286, %283 ]
  %332 = phi i8* [ %144, %142 ], [ %160, %158 ], [ %257, %255 ], [ %285, %283 ]
  call void @llvm.dbg.value(metadata %"class.kj::_::NullableValue"* %29, i64 0, metadata !11510, metadata !8316), !dbg !12572
  %333 = load i8, i8* %98, align 8, !dbg !12574, !tbaa !11469, !range !8348
  %334 = icmp eq i8 %333, 0, !dbg !12574
  br i1 %334, label %341, label %335, !dbg !12575

; <label>:335:                                    ; preds = %330
  call void @llvm.dbg.value(metadata %"class.kj::_::NullableValue"* %29, i64 0, metadata !11522, metadata !11484), !dbg !12576
  call void @llvm.dbg.value(metadata %"class.kj::_::NullableValue"* %29, i64 0, metadata !11532, metadata !11484), !dbg !12578
  %336 = getelementptr inbounds %"class.kj::_::NullableValue", %"class.kj::_::NullableValue"* %29, i64 0, i32 1, i32 0, i32 0, i32 1, !dbg !12580
  %337 = load %"class.capnp::_::SegmentBuilder"*, %"class.capnp::_::SegmentBuilder"** %336, align 8, !dbg !12580, !tbaa !11940
  %338 = icmp eq %"class.capnp::_::SegmentBuilder"* %337, null, !dbg !12582
  br i1 %338, label %341, label %339, !dbg !12583

; <label>:339:                                    ; preds = %335
  %340 = getelementptr inbounds %"class.kj::_::NullableValue", %"class.kj::_::NullableValue"* %29, i64 0, i32 1, i32 0, i32 0, !dbg !12584
  invoke void @_ZN5capnp1_13OrphanBuilder9euthanizeEv(%"class.capnp::_::OrphanBuilder"* nonnull %340)
          to label %341 unwind label %404, !dbg !12585

; <label>:341:                                    ; preds = %339, %335, %330, %326, %136
  %342 = phi i32 [ %329, %326 ], [ %139, %136 ], [ %331, %339 ], [ %331, %330 ], [ %331, %335 ]
  %343 = phi i8* [ %328, %326 ], [ %138, %136 ], [ %332, %339 ], [ %332, %330 ], [ %332, %335 ]
  call void @llvm.lifetime.end.p0i8(i64 40, i8* nonnull %98) #10, !dbg !12217
  br label %360, !dbg !12217

; <label>:344:                                    ; preds = %85
  %345 = bitcast %"class.kj::_::Debug::Fault"* %34 to i8*, !dbg !12586
  call void @llvm.lifetime.start.p0i8(i64 8, i8* nonnull %345) #10, !dbg !12586
  invoke void @_ZN2kj1_5Debug5FaultC2INS_9Exception4TypeEJRA22_KcEEEPS6_iT_S9_S9_DpOT0_(%"class.kj::_::Debug::Fault"* nonnull %34, i8* getelementptr inbounds ([29 x i8], [29 x i8]* @.str, i64 0, i64 0), i32 87, i32 0, i8* null, i8* getelementptr inbounds ([24 x i8], [24 x i8]* @.str.7, i64 0, i64 0), [22 x i8]* nonnull dereferenceable(22) @.str.8)
          to label %346 unwind label %348, !dbg !12586

; <label>:346:                                    ; preds = %344
  invoke void @_ZN2kj1_5Debug5Fault5fatalEv(%"class.kj::_::Debug::Fault"* nonnull %34) #12
          to label %347 unwind label %352, !dbg !12587

; <label>:347:                                    ; preds = %346
  unreachable, !dbg !12587

; <label>:348:                                    ; preds = %344
  %349 = landingpad { i8*, i32 }
          cleanup, !dbg !12589
  %350 = extractvalue { i8*, i32 } %349, 0, !dbg !12589
  %351 = extractvalue { i8*, i32 } %349, 1, !dbg !12589
  br label %356, !dbg !12589

; <label>:352:                                    ; preds = %346
  %353 = landingpad { i8*, i32 }
          cleanup, !dbg !12590
  %354 = extractvalue { i8*, i32 } %353, 0, !dbg !12590
  %355 = extractvalue { i8*, i32 } %353, 1, !dbg !12590
  invoke void @_ZN2kj1_5Debug5FaultD1Ev(%"class.kj::_::Debug::Fault"* nonnull %34)
          to label %356 unwind label %404, !dbg !12587

; <label>:356:                                    ; preds = %352, %348
  %357 = phi i32 [ %355, %352 ], [ %351, %348 ]
  %358 = phi i8* [ %354, %352 ], [ %350, %348 ]
  call void @llvm.lifetime.end.p0i8(i64 8, i8* nonnull %345) #10, !dbg !12587
  br label %360, !dbg !12587

; <label>:359:                                    ; preds = %325
  call void @llvm.lifetime.end.p0i8(i64 408, i8* nonnull %54) #10, !dbg !12268
  call void @llvm.lifetime.end.p0i8(i64 40, i8* nonnull %43) #10, !dbg !12268
  call void @llvm.dbg.value(metadata %"class.capnp::MallocMessageBuilder"* %24, i64 0, metadata !12070, metadata !8316), !dbg !12125
  invoke void @_ZN5capnp20MallocMessageBuilderD1Ev(%"class.capnp::MallocMessageBuilder"* nonnull %24)
          to label %415 unwind label %407, !dbg !12268

; <label>:360:                                    ; preds = %356, %341
  %361 = phi i32 [ %342, %341 ], [ %357, %356 ]
  %362 = phi i8* [ %343, %341 ], [ %358, %356 ]
  call void @llvm.dbg.value(metadata %"class.kj::parse::IteratorInput"* %28, i64 0, metadata !12074, metadata !8316), !dbg !12195
  call void @llvm.dbg.value(metadata %"class.kj::parse::IteratorInput"* %28, i64 0, metadata !11947, metadata !8316) #10, !dbg !12591
  %363 = load %"class.kj::parse::IteratorInput"*, %"class.kj::parse::IteratorInput"** %89, align 8, !dbg !12593, !tbaa !11413
  %364 = icmp eq %"class.kj::parse::IteratorInput"* %363, null, !dbg !12594
  br i1 %364, label %391, label %365, !dbg !12595

; <label>:365:                                    ; preds = %360
  %366 = bitcast { %"class.capnp::List<capnp::compiler::Token, capnp::Kind::STRUCT>::Reader"*, i32 }* %16 to %"class.capnp::_::IndexingIterator"*
  %367 = bitcast { %"class.capnp::List<capnp::compiler::Token, capnp::Kind::STRUCT>::Reader"*, i32 }* %16 to i8*, !dbg !12596
  call void @llvm.lifetime.start.p0i8(i64 16, i8* nonnull %367) #10, !dbg !12596
  %368 = getelementptr inbounds %"class.kj::parse::IteratorInput", %"class.kj::parse::IteratorInput"* %28, i64 0, i32 1, !dbg !12597
  %369 = getelementptr inbounds %"class.kj::parse::IteratorInput", %"class.kj::parse::IteratorInput"* %28, i64 0, i32 3, !dbg !12598
  call void @llvm.dbg.value(metadata %"class.capnp::_::IndexingIterator"* %368, i64 0, metadata !11796, metadata !8316) #10, !dbg !12599
  call void @llvm.dbg.value(metadata %"class.capnp::_::IndexingIterator"* %369, i64 0, metadata !11801, metadata !8316) #10, !dbg !12601
  call void @llvm.dbg.value(metadata %"class.capnp::_::IndexingIterator"* %368, i64 0, metadata !11808, metadata !8316) #10, !dbg !12602
  call void @llvm.dbg.value(metadata %"class.capnp::_::IndexingIterator"* %369, i64 0, metadata !11811, metadata !8316) #10, !dbg !12604
  %370 = load i32, i32* %91, align 8, !dbg !12605, !tbaa !11816
  %371 = load i32, i32* %95, align 8, !dbg !12606, !tbaa !11816
  %372 = icmp ugt i32 %370, %371, !dbg !12607
  %373 = select i1 %372, %"class.capnp::_::IndexingIterator"* %368, %"class.capnp::_::IndexingIterator"* %369, !dbg !12608
  %374 = getelementptr inbounds %"class.capnp::_::IndexingIterator", %"class.capnp::_::IndexingIterator"* %373, i64 0, i32 1
  %375 = load i32, i32* %374, align 8
  %376 = bitcast %"class.capnp::_::IndexingIterator"* %373 to i64*
  %377 = load i64, i64* %376, align 8
  %378 = bitcast { %"class.capnp::List<capnp::compiler::Token, capnp::Kind::STRUCT>::Reader"*, i32 }* %16 to i64*, !dbg !12596
  store i64 %377, i64* %378, align 8, !dbg !12596
  %379 = getelementptr inbounds { %"class.capnp::List<capnp::compiler::Token, capnp::Kind::STRUCT>::Reader"*, i32 }, { %"class.capnp::List<capnp::compiler::Token, capnp::Kind::STRUCT>::Reader"*, i32 }* %16, i64 0, i32 1, !dbg !12596
  store i32 %375, i32* %379, align 8, !dbg !12596
  %380 = getelementptr inbounds %"class.kj::parse::IteratorInput", %"class.kj::parse::IteratorInput"* %363, i64 0, i32 3, !dbg !12609
  call void @llvm.dbg.value(metadata %"class.capnp::_::IndexingIterator"* %366, i64 0, metadata !11972, metadata !8316) #10, !dbg !12610
  call void @llvm.dbg.value(metadata %"class.capnp::_::IndexingIterator"* %380, i64 0, metadata !11978, metadata !8316) #10, !dbg !12612
  call void @llvm.dbg.value(metadata %"class.capnp::_::IndexingIterator"* %366, i64 0, metadata !11808, metadata !8316) #10, !dbg !12613
  call void @llvm.dbg.value(metadata %"class.capnp::_::IndexingIterator"* %380, i64 0, metadata !11811, metadata !8316) #10, !dbg !12615
  %381 = getelementptr inbounds %"class.kj::parse::IteratorInput", %"class.kj::parse::IteratorInput"* %363, i64 0, i32 3, i32 1, !dbg !12616
  %382 = load i32, i32* %381, align 8, !dbg !12616, !tbaa !11816
  %383 = icmp ugt i32 %375, %382, !dbg !12617
  %384 = select i1 %383, %"class.capnp::_::IndexingIterator"* %366, %"class.capnp::_::IndexingIterator"* %380, !dbg !12618
  %385 = getelementptr inbounds %"class.capnp::_::IndexingIterator", %"class.capnp::_::IndexingIterator"* %384, i64 0, i32 1
  %386 = load i32, i32* %385, align 8
  %387 = bitcast %"class.capnp::_::IndexingIterator"* %384 to i64*
  %388 = load i64, i64* %387, align 8
  %389 = getelementptr inbounds %"class.kj::parse::IteratorInput", %"class.kj::parse::IteratorInput"* %363, i64 0, i32 3, i32 0, !dbg !12619
  %390 = bitcast %"class.capnp::List<capnp::compiler::Token, capnp::Kind::STRUCT>::Reader"** %389 to i64*, !dbg !12619
  store i64 %388, i64* %390, align 8, !dbg !12619
  store i32 %386, i32* %381, align 8, !dbg !12619
  call void @llvm.lifetime.end.p0i8(i64 16, i8* nonnull %367) #10, !dbg !12620
  br label %391, !dbg !12621

; <label>:391:                                    ; preds = %365, %360
  call void @llvm.lifetime.end.p0i8(i64 56, i8* nonnull %86) #10, !dbg !12268
  br label %392, !dbg !12268

; <label>:392:                                    ; preds = %391, %132
  %393 = phi i32 [ %361, %391 ], [ %135, %132 ]
  %394 = phi i8* [ %362, %391 ], [ %134, %132 ]
  call void @llvm.lifetime.end.p0i8(i64 48, i8* nonnull %60) #10, !dbg !12268
  invoke void @_ZN5capnp8compiler11CapnpParserD1Ev(%"class.capnp::compiler::CapnpParser"* nonnull %26)
          to label %395 unwind label %404, !dbg !12268

; <label>:395:                                    ; preds = %392, %128
  %396 = phi i32 [ %131, %128 ], [ %393, %392 ]
  %397 = phi i8* [ %130, %128 ], [ %394, %392 ]
  call void @llvm.lifetime.end.p0i8(i64 408, i8* nonnull %54) #10, !dbg !12268
  br label %398, !dbg !12268

; <label>:398:                                    ; preds = %395, %124
  %399 = phi i32 [ %396, %395 ], [ %127, %124 ]
  %400 = phi i8* [ %397, %395 ], [ %126, %124 ]
  call void @llvm.lifetime.end.p0i8(i64 40, i8* nonnull %43) #10, !dbg !12268
  invoke void @_ZN5capnp20MallocMessageBuilderD1Ev(%"class.capnp::MallocMessageBuilder"* nonnull %24)
          to label %401 unwind label %404, !dbg !12268

; <label>:401:                                    ; preds = %398
  call void @llvm.lifetime.end.p0i8(i64 224, i8* nonnull %41) #10, !dbg !12268
  call void @llvm.lifetime.end.p0i8(i64 8, i8* nonnull %39) #10, !dbg !12268
  %402 = insertvalue { i8*, i32 } undef, i8* %400, 0, !dbg !12268
  %403 = insertvalue { i8*, i32 } %402, i32 %399, 1, !dbg !12268
  br label %409

; <label>:404:                                    ; preds = %398, %392, %352, %339, %251, %154
  %405 = landingpad { i8*, i32 }
          catch i8* null, !dbg !12218
  %406 = extractvalue { i8*, i32 } %405, 0, !dbg !12218
  call void @__clang_call_terminate(i8* %406) #11, !dbg !12218
  unreachable, !dbg !12218

; <label>:407:                                    ; preds = %359, %7
  %408 = landingpad { i8*, i32 }
          cleanup, !dbg !12622
  br label %409, !dbg !12622

; <label>:409:                                    ; preds = %401, %407
  %410 = phi { i8*, i32 } [ %408, %407 ], [ %403, %401 ]
  call void @llvm.dbg.value(metadata %"class.capnp::Orphan"* %0, i64 0, metadata !12398, metadata !8316), !dbg !12623
  %411 = getelementptr inbounds %"class.capnp::Orphan", %"class.capnp::Orphan"* %0, i64 0, i32 2, i32 1, !dbg !12625
  %412 = load %"class.capnp::_::SegmentBuilder"*, %"class.capnp::_::SegmentBuilder"** %411, align 8, !dbg !12625, !tbaa !11940
  %413 = icmp eq %"class.capnp::_::SegmentBuilder"* %412, null, !dbg !12627
  br i1 %413, label %416, label %414, !dbg !12628

; <label>:414:                                    ; preds = %409
  invoke void @_ZN5capnp1_13OrphanBuilder9euthanizeEv(%"class.capnp::_::OrphanBuilder"* nonnull %36)
          to label %416 unwind label %417, !dbg !12629

; <label>:415:                                    ; preds = %359
  call void @llvm.lifetime.end.p0i8(i64 224, i8* nonnull %41) #10, !dbg !12268
  call void @llvm.lifetime.end.p0i8(i64 8, i8* nonnull %39) #10, !dbg !12268
  call void @llvm.lifetime.end.p0i8(i64 48, i8* nonnull %38), !dbg !12268
  ret void, !dbg !12622

; <label>:416:                                    ; preds = %409, %414
  resume { i8*, i32 } %410, !dbg !12622

; <label>:417:                                    ; preds = %414
  %418 = landingpad { i8*, i32 }
          catch i8* null, !dbg !12622
  %419 = extractvalue { i8*, i32 } %418, 0, !dbg !12622
  call void @__clang_call_terminate(i8* %419) #11, !dbg !12622
  unreachable, !dbg !12622
}

; Function Attrs: noinline noreturn nounwind
define linkonce_odr hidden void @__clang_call_terminate(i8*) local_unnamed_addr #6 comdat {
  %2 = tail call i8* @__cxa_begin_catch(i8* %0) #10
  tail call void @_ZSt9terminatev() #11
  unreachable
}

declare i8* @__cxa_begin_catch(i8*) local_unnamed_addr

declare void @_ZSt9terminatev() local_unnamed_addr

; Function Attrs: uwtable
define linkonce_odr void @_ZN2kj13ArrayDisposer8Dispose_INS_10StringTree6BranchELb0EE8destructEPv(i8*) #3 comdat align 2 personality i32 (...)* @__gxx_personality_v0 !dbg !12630 {
  tail call void @llvm.dbg.value(metadata i8* %0, i64 0, metadata !12632, metadata !8316), !dbg !12633
  tail call void @llvm.dbg.value(metadata i8* %0, i64 0, metadata !12634, metadata !8316) #10, !dbg !12639
  tail call void @llvm.dbg.value(metadata i8* %0, i64 0, metadata !12641, metadata !8316) #10, !dbg !12648
  tail call void @llvm.dbg.value(metadata i8* %0, i64 0, metadata !8383, metadata !11484) #10, !dbg !12650
  %2 = getelementptr inbounds i8, i8* %0, i64 40, !dbg !12653
  tail call void @llvm.dbg.value(metadata i8* %2, i64 0, metadata !8391, metadata !8316) #10, !dbg !12654
  tail call void @llvm.dbg.value(metadata i8* %2, i64 0, metadata !8397, metadata !8316) #10, !dbg !12656
  %3 = bitcast i8* %2 to %"struct.kj::StringTree::Branch"**, !dbg !12658
  %4 = load %"struct.kj::StringTree::Branch"*, %"struct.kj::StringTree::Branch"** %3, align 8, !dbg !12658, !tbaa !8406
  tail call void @llvm.dbg.value(metadata %"struct.kj::StringTree::Branch"* %4, i64 0, metadata !8400, metadata !8316) #10, !dbg !12659
  %5 = getelementptr inbounds i8, i8* %0, i64 48, !dbg !12660
  %6 = bitcast i8* %5 to i64*, !dbg !12660
  %7 = load i64, i64* %6, align 8, !dbg !12660, !tbaa !8412
  tail call void @llvm.dbg.value(metadata i64 %7, i64 0, metadata !8401, metadata !8316) #10, !dbg !12661
  %8 = icmp eq %"struct.kj::StringTree::Branch"* %4, null, !dbg !12662
  br i1 %8, label %20, label %9, !dbg !12663

; <label>:9:                                      ; preds = %1
  %10 = getelementptr inbounds i8, i8* %0, i64 56, !dbg !12664
  %11 = bitcast i8* %10 to %"class.kj::ArrayDisposer"**, !dbg !12664
  tail call void @llvm.memset.p0i8.i64(i8* %2, i8 0, i64 16, i32 8, i1 false) #10, !dbg !12665
  %12 = load %"class.kj::ArrayDisposer"*, %"class.kj::ArrayDisposer"** %11, align 8, !dbg !12664, !tbaa !8420
  tail call void @llvm.dbg.value(metadata %"class.kj::ArrayDisposer"* %12, i64 0, metadata !8421, metadata !8316) #10, !dbg !12666
  tail call void @llvm.dbg.value(metadata %"struct.kj::StringTree::Branch"* %4, i64 0, metadata !8430, metadata !8316) #10, !dbg !12668
  tail call void @llvm.dbg.value(metadata i64 %7, i64 0, metadata !8431, metadata !8316) #10, !dbg !12669
  tail call void @llvm.dbg.value(metadata i64 %7, i64 0, metadata !8432, metadata !8316) #10, !dbg !12670
  tail call void @llvm.dbg.value(metadata %"struct.kj::StringTree::Branch"* %4, i64 0, metadata !8438, metadata !8316) #10, !dbg !12671
  tail call void @llvm.dbg.value(metadata i64 %7, i64 0, metadata !8451, metadata !8316) #10, !dbg !12673
  tail call void @llvm.dbg.value(metadata i64 %7, i64 0, metadata !8452, metadata !8316) #10, !dbg !12674
  tail call void @llvm.dbg.value(metadata %"class.kj::ArrayDisposer"* %12, i64 0, metadata !8453, metadata !8316) #10, !dbg !12675
  %13 = bitcast %"class.kj::ArrayDisposer"* %12 to void (%"class.kj::ArrayDisposer"*, i8*, i64, i64, i64, void (i8*)*)***, !dbg !12676
  %14 = load void (%"class.kj::ArrayDisposer"*, i8*, i64, i64, i64, void (i8*)*)**, void (%"class.kj::ArrayDisposer"*, i8*, i64, i64, i64, void (i8*)*)*** %13, align 8, !dbg !12676, !tbaa !8460
  %15 = load void (%"class.kj::ArrayDisposer"*, i8*, i64, i64, i64, void (i8*)*)*, void (%"class.kj::ArrayDisposer"*, i8*, i64, i64, i64, void (i8*)*)** %14, align 8, !dbg !12676
  %16 = bitcast %"struct.kj::StringTree::Branch"* %4 to i8*, !dbg !12677
  invoke void %15(%"class.kj::ArrayDisposer"* nonnull %12, i8* %16, i64 64, i64 %7, i64 %7, void (i8*)* nonnull @_ZN2kj13ArrayDisposer8Dispose_INS_10StringTree6BranchELb0EE8destructEPv)
          to label %20 unwind label %17, !dbg !12676

; <label>:17:                                     ; preds = %9
  %18 = landingpad { i8*, i32 }
          catch i8* null, !dbg !12678
  %19 = extractvalue { i8*, i32 } %18, 0, !dbg !12678
  tail call void @__clang_call_terminate(i8* %19) #11, !dbg !12678
  unreachable, !dbg !12678

; <label>:20:                                     ; preds = %9, %1
  %21 = getelementptr inbounds i8, i8* %0, i64 16, !dbg !12653
  tail call void @llvm.dbg.value(metadata i8* %21, i64 0, metadata !8464, metadata !8316) #10, !dbg !12679
  tail call void @llvm.dbg.value(metadata i8* %21, i64 0, metadata !8471, metadata !8475) #10, !dbg !12681
  tail call void @llvm.dbg.value(metadata i8* %21, i64 0, metadata !8479, metadata !8475) #10, !dbg !12683
  %22 = bitcast i8* %21 to i8**, !dbg !12685
  %23 = load i8*, i8** %22, align 8, !dbg !12685, !tbaa !8488
  tail call void @llvm.dbg.value(metadata i8* %23, i64 0, metadata !8482, metadata !8316) #10, !dbg !12686
  %24 = getelementptr inbounds i8, i8* %0, i64 24, !dbg !12687
  %25 = bitcast i8* %24 to i64*, !dbg !12687
  %26 = load i64, i64* %25, align 8, !dbg !12687, !tbaa !8492
  tail call void @llvm.dbg.value(metadata i64 %26, i64 0, metadata !8483, metadata !8316) #10, !dbg !12688
  %27 = icmp eq i8* %23, null, !dbg !12689
  br i1 %27, label %38, label %28, !dbg !12690

; <label>:28:                                     ; preds = %20
  %29 = getelementptr inbounds i8, i8* %0, i64 32, !dbg !12691
  %30 = bitcast i8* %29 to %"class.kj::ArrayDisposer"**, !dbg !12691
  tail call void @llvm.memset.p0i8.i64(i8* %21, i8 0, i64 16, i32 8, i1 false) #10, !dbg !12692
  %31 = load %"class.kj::ArrayDisposer"*, %"class.kj::ArrayDisposer"** %30, align 8, !dbg !12691, !tbaa !8500
  tail call void @llvm.dbg.value(metadata %"class.kj::ArrayDisposer"* %31, i64 0, metadata !8501, metadata !8316) #10, !dbg !12693
  tail call void @llvm.dbg.value(metadata i8* %23, i64 0, metadata !8507, metadata !8316) #10, !dbg !12695
  tail call void @llvm.dbg.value(metadata i64 %26, i64 0, metadata !8508, metadata !8316) #10, !dbg !12696
  tail call void @llvm.dbg.value(metadata i64 %26, i64 0, metadata !8509, metadata !8316) #10, !dbg !12697
  tail call void @llvm.dbg.value(metadata i8* %23, i64 0, metadata !8515, metadata !8316) #10, !dbg !12698
  tail call void @llvm.dbg.value(metadata i64 %26, i64 0, metadata !8525, metadata !8316) #10, !dbg !12700
  tail call void @llvm.dbg.value(metadata i64 %26, i64 0, metadata !8526, metadata !8316) #10, !dbg !12701
  tail call void @llvm.dbg.value(metadata %"class.kj::ArrayDisposer"* %31, i64 0, metadata !8527, metadata !8316) #10, !dbg !12702
  %32 = bitcast %"class.kj::ArrayDisposer"* %31 to void (%"class.kj::ArrayDisposer"*, i8*, i64, i64, i64, void (i8*)*)***, !dbg !12703
  %33 = load void (%"class.kj::ArrayDisposer"*, i8*, i64, i64, i64, void (i8*)*)**, void (%"class.kj::ArrayDisposer"*, i8*, i64, i64, i64, void (i8*)*)*** %32, align 8, !dbg !12703, !tbaa !8460
  %34 = load void (%"class.kj::ArrayDisposer"*, i8*, i64, i64, i64, void (i8*)*)*, void (%"class.kj::ArrayDisposer"*, i8*, i64, i64, i64, void (i8*)*)** %33, align 8, !dbg !12703
  invoke void %34(%"class.kj::ArrayDisposer"* nonnull %31, i8* nonnull %23, i64 1, i64 %26, i64 %26, void (i8*)* null)
          to label %38 unwind label %35, !dbg !12703

; <label>:35:                                     ; preds = %28
  %36 = landingpad { i8*, i32 }
          catch i8* null, !dbg !12704
  %37 = extractvalue { i8*, i32 } %36, 0, !dbg !12704
  tail call void @__clang_call_terminate(i8* %37) #11, !dbg !12704
  unreachable, !dbg !12704

; <label>:38:                                     ; preds = %20, %28
  ret void, !dbg !12705
}

; Function Attrs: argmemonly nounwind
declare void @llvm.memset.p0i8.i64(i8* nocapture writeonly, i8, i64, i32, i1) #4

declare void @_ZN5capnp1_13OrphanBuilder9euthanizeEv(%"class.capnp::_::OrphanBuilder"*) local_unnamed_addr #5

declare void @_ZN2kj10heapStringEm(%"class.kj::String"* sret, i64) local_unnamed_addr #5

declare void @_ZNK2kj10StringTree9flattenToEPc(%"class.kj::StringTree"*, i8*) local_unnamed_addr #5

declare void @_ZN5capnpmlEN2kj1_11StringifierERKNS_12DynamicValue6ReaderE(%"class.kj::StringTree"* sret, %"class.capnp::DynamicValue::Reader"* dereferenceable(72)) local_unnamed_addr #5

declare void @_ZN5capnp12DynamicValue6Reader6AsImplINS_13DynamicStructELNS_4KindE7EE5applyERKS1_(%"class.capnp::DynamicStruct::Reader"* sret, %"class.capnp::DynamicValue::Reader"* dereferenceable(72)) local_unnamed_addr #5

declare void @_ZN5capnp12DynamicValue6Reader6AsImplINS_11DynamicListELNS_4KindE7EE5applyERKS1_(%"class.capnp::DynamicList::Reader"* sret, %"class.capnp::DynamicValue::Reader"* dereferenceable(72)) local_unnamed_addr #5

declare void @_ZN5capnp20MallocMessageBuilderC1EjNS_18AllocationStrategyE(%"class.capnp::MallocMessageBuilder"*, i32, i8 zeroext) unnamed_addr #5

declare zeroext i1 @_ZN5capnp8compiler3lexEN2kj8ArrayPtrIKcEENS0_11LexedTokens7BuilderERNS0_13ErrorReporterE(i8*, i64, %"class.capnp::compiler::LexedTokens::Builder"* byval align 8, %"class.capnp::compiler::ErrorReporter"* dereferenceable(8)) local_unnamed_addr #5

declare { %"class.capnp::_::BuilderArena"*, %"class.capnp::_::CapTableBuilder"* } @_ZN5capnp14MessageBuilder12getOrphanageEv(%"class.capnp::MessageBuilder"*) local_unnamed_addr #5

declare void @_ZN5capnp8compiler11CapnpParserC1ENS_9OrphanageERNS0_13ErrorReporterE(%"class.capnp::compiler::CapnpParser"*, %"class.capnp::_::BuilderArena"*, %"class.capnp::_::CapTableBuilder"*, %"class.capnp::compiler::ErrorReporter"* dereferenceable(8)) unnamed_addr #5

; Function Attrs: uwtable
define linkonce_odr void @_ZN2kj1_5Debug5FaultC2INS_9Exception4TypeEJRA23_KcEEEPS6_iT_S9_S9_DpOT0_(%"class.kj::_::Debug::Fault"*, i8*, i32, i32, i8*, i8*, [23 x i8]* dereferenceable(23)) unnamed_addr #3 comdat align 2 personality i8* bitcast (i32 (...)* @__gxx_personality_v0 to i8*) !dbg !12706 {
  %8 = alloca [1 x %"class.kj::String"], align 16
  %9 = alloca %"class.kj::ArrayPtr.18", align 8
  tail call void @llvm.dbg.value(metadata %"class.kj::_::Debug::Fault"* %0, i64 0, metadata !12721, metadata !8316), !dbg !12732
  tail call void @llvm.dbg.value(metadata i8* %1, i64 0, metadata !12723, metadata !8316), !dbg !12733
  tail call void @llvm.dbg.value(metadata i32 %2, i64 0, metadata !12724, metadata !8316), !dbg !12734
  tail call void @llvm.dbg.value(metadata i32 %3, i64 0, metadata !12725, metadata !8316), !dbg !12735
  tail call void @llvm.dbg.value(metadata i8* %4, i64 0, metadata !12726, metadata !8316), !dbg !12736
  tail call void @llvm.dbg.value(metadata i8* %5, i64 0, metadata !12727, metadata !8316), !dbg !12737
  tail call void @llvm.dbg.value(metadata [23 x i8]* %6, i64 0, metadata !12728, metadata !8316), !dbg !12738
  %10 = getelementptr inbounds %"class.kj::_::Debug::Fault", %"class.kj::_::Debug::Fault"* %0, i64 0, i32 0, !dbg !12739
  store %"class.kj::Exception"* null, %"class.kj::Exception"** %10, align 8, !dbg !12739, !tbaa !12740
  %11 = bitcast [1 x %"class.kj::String"]* %8 to i8*, !dbg !12742
  call void @llvm.lifetime.start.p0i8(i64 24, i8* nonnull %11) #10, !dbg !12742
  tail call void @llvm.dbg.declare(metadata [1 x %"class.kj::String"]* %8, metadata !12729, metadata !8316), !dbg !12743
  %12 = getelementptr inbounds [1 x %"class.kj::String"], [1 x %"class.kj::String"]* %8, i64 0, i64 0, !dbg !12744
  tail call void @llvm.dbg.value(metadata [23 x i8]* %6, i64 0, metadata !12745, metadata !8316), !dbg !12751
  tail call void @llvm.dbg.value(metadata [23 x i8]* %6, i64 0, metadata !12753, metadata !8316), !dbg !12760
  %13 = getelementptr inbounds [23 x i8], [23 x i8]* %6, i64 0, i64 0, !dbg !12762
  tail call void @llvm.dbg.value(metadata %"struct.kj::_::Stringifier"* @_ZN2kj1_L3STRE, i64 0, metadata !12763, metadata !8316), !dbg !12768
  tail call void @llvm.dbg.value(metadata i8* %13, i64 0, metadata !12766, metadata !8316), !dbg !12770
  %14 = tail call i64 @strlen(i8* nonnull %13) #13, !dbg !12771, !noalias !12772
  tail call void @llvm.dbg.value(metadata %"class.kj::ArrayPtr"* undef, i64 0, metadata !12775, metadata !8316), !dbg !12786
  tail call void @llvm.dbg.declare(metadata %"class.kj::String"* %12, metadata !12781, metadata !8316), !dbg !12788
  invoke void @_ZN2kj10heapStringEm(%"class.kj::String"* nonnull sret %12, i64 %14)
          to label %15 unwind label %138, !dbg !12789

; <label>:15:                                     ; preds = %7
  call void @llvm.dbg.value(metadata %"class.kj::String"* %12, i64 0, metadata !8767, metadata !8316), !dbg !12790
  call void @llvm.dbg.value(metadata %"class.kj::String"* %12, i64 0, metadata !8772, metadata !8475), !dbg !12792
  call void @llvm.dbg.value(metadata i8* null, i64 0, metadata !8775, metadata !8316), !dbg !12794
  call void @llvm.dbg.value(metadata %"class.kj::String"* %12, i64 0, metadata !8783, metadata !8475), !dbg !12795
  call void @llvm.dbg.value(metadata i8* %24, i64 0, metadata !12797, metadata !8316), !dbg !12807
  call void @llvm.dbg.value(metadata %"class.kj::ArrayPtr"* undef, i64 0, metadata !12802, metadata !8316), !dbg !12809
  call void @llvm.dbg.value(metadata i8* %13, i64 0, metadata !12803, metadata !8316), !dbg !12810
  call void @llvm.dbg.value(metadata %"class.kj::ArrayPtr"* undef, i64 0, metadata !12811, metadata !8316), !dbg !12815
  %16 = getelementptr inbounds [23 x i8], [23 x i8]* %6, i64 0, i64 %14, !dbg !12817
  call void @llvm.dbg.value(metadata i8* %16, i64 0, metadata !12804, metadata !8316), !dbg !12818
  call void @llvm.dbg.value(metadata i8* %24, i64 0, metadata !12797, metadata !8316), !dbg !12807
  call void @llvm.dbg.value(metadata i8* %13, i64 0, metadata !12803, metadata !8316), !dbg !12810
  %17 = icmp eq i64 %14, 0, !dbg !12819
  br i1 %17, label %118, label %18, !dbg !12820

; <label>:18:                                     ; preds = %15
  %19 = getelementptr inbounds [1 x %"class.kj::String"], [1 x %"class.kj::String"]* %8, i64 0, i64 0, i32 0, i32 1, !dbg !12821
  %20 = load i64, i64* %19, align 8, !dbg !12821, !tbaa !8492, !alias.scope !12822
  %21 = icmp eq i64 %20, 0, !dbg !12825
  %22 = getelementptr inbounds [1 x %"class.kj::String"], [1 x %"class.kj::String"]* %8, i64 0, i64 0, i32 0, i32 0, !dbg !12826
  %23 = load i8*, i8** %22, align 16, !dbg !12826
  %24 = select i1 %21, i8* null, i8* %23, !dbg !12827
  %25 = icmp ult i64 %14, 32, !dbg !12820
  br i1 %25, label %108, label %26, !dbg !12820

; <label>:26:                                     ; preds = %18
  %27 = and i64 %14, -32, !dbg !12820
  %28 = getelementptr i8, i8* %24, i64 %27, !dbg !12820
  %29 = getelementptr [23 x i8], [23 x i8]* %6, i64 0, i64 %27, !dbg !12820
  %30 = add i64 %27, -32, !dbg !12820
  %31 = lshr exact i64 %30, 5, !dbg !12820
  %32 = add nuw nsw i64 %31, 1, !dbg !12820
  %33 = and i64 %32, 3, !dbg !12820
  %34 = icmp ult i64 %30, 96, !dbg !12820
  br i1 %34, label %86, label %35, !dbg !12820

; <label>:35:                                     ; preds = %26
  %36 = sub nsw i64 %32, %33, !dbg !12820
  br label %37, !dbg !12820

; <label>:37:                                     ; preds = %37, %35
  %38 = phi i64 [ 0, %35 ], [ %83, %37 ]
  %39 = phi i64 [ %36, %35 ], [ %84, %37 ]
  %40 = getelementptr i8, i8* %24, i64 %38
  %41 = getelementptr [23 x i8], [23 x i8]* %6, i64 0, i64 %38
  %42 = bitcast i8* %41 to <16 x i8>*, !dbg !12828
  %43 = load <16 x i8>, <16 x i8>* %42, align 1, !dbg !12828, !tbaa !11712, !noalias !12830
  %44 = getelementptr i8, i8* %41, i64 16, !dbg !12828
  %45 = bitcast i8* %44 to <16 x i8>*, !dbg !12828
  %46 = load <16 x i8>, <16 x i8>* %45, align 1, !dbg !12828, !tbaa !11712, !noalias !12830
  %47 = bitcast i8* %40 to <16 x i8>*, !dbg !12833
  store <16 x i8> %43, <16 x i8>* %47, align 1, !dbg !12833, !tbaa !11712, !alias.scope !12834
  %48 = getelementptr i8, i8* %40, i64 16, !dbg !12833
  %49 = bitcast i8* %48 to <16 x i8>*, !dbg !12833
  store <16 x i8> %46, <16 x i8>* %49, align 1, !dbg !12833, !tbaa !11712, !alias.scope !12834
  %50 = or i64 %38, 32
  %51 = getelementptr i8, i8* %24, i64 %50
  %52 = getelementptr [23 x i8], [23 x i8]* %6, i64 0, i64 %50
  %53 = bitcast i8* %52 to <16 x i8>*, !dbg !12828
  %54 = load <16 x i8>, <16 x i8>* %53, align 1, !dbg !12828, !tbaa !11712, !noalias !12830
  %55 = getelementptr i8, i8* %52, i64 16, !dbg !12828
  %56 = bitcast i8* %55 to <16 x i8>*, !dbg !12828
  %57 = load <16 x i8>, <16 x i8>* %56, align 1, !dbg !12828, !tbaa !11712, !noalias !12830
  %58 = bitcast i8* %51 to <16 x i8>*, !dbg !12833
  store <16 x i8> %54, <16 x i8>* %58, align 1, !dbg !12833, !tbaa !11712, !alias.scope !12834
  %59 = getelementptr i8, i8* %51, i64 16, !dbg !12833
  %60 = bitcast i8* %59 to <16 x i8>*, !dbg !12833
  store <16 x i8> %57, <16 x i8>* %60, align 1, !dbg !12833, !tbaa !11712, !alias.scope !12834
  %61 = or i64 %38, 64
  %62 = getelementptr i8, i8* %24, i64 %61
  %63 = getelementptr [23 x i8], [23 x i8]* %6, i64 0, i64 %61
  %64 = bitcast i8* %63 to <16 x i8>*, !dbg !12828
  %65 = load <16 x i8>, <16 x i8>* %64, align 1, !dbg !12828, !tbaa !11712, !noalias !12830
  %66 = getelementptr i8, i8* %63, i64 16, !dbg !12828
